

Microchip Technology PIC18 LITE Macro Assembler V1.45 build -152302408 
                                                                                               Thu Dec 11 00:16:16 2025

Microchip Technology Omniscient Code Generator v1.45 (Free mode) build 201711160504
     1                           	processor	18F4620
     2                           	fnconf	rparam,??,?,0
     3                           	opt	pw 120
     4                           	opt	lm
     5                           	psect	idataBANK0,global,class=CODE,delta=1,noexec
     6                           	psect	smallconst,global,reloc=2,class=SMALLCONST,delta=1,noexec
     7                           	psect	cinit,global,reloc=2,class=CODE,delta=1
     8                           	psect	bssCOMRAM,global,class=COMRAM,space=1,delta=1,noexec
     9                           	psect	bssBANK0,global,class=BANK0,space=1,delta=1,lowdata,noexec
    10                           	psect	dataBANK0,global,class=BANK0,space=1,delta=1,lowdata,noexec
    11                           	psect	cstackBANK0,global,class=BANK0,space=1,delta=1,noexec
    12                           	psect	cstackCOMRAM,global,class=COMRAM,space=1,delta=1,noexec
    13                           	psect	text0,global,reloc=2,class=CODE,delta=1
    14                           	psect	text1,global,reloc=2,class=CODE,delta=1
    15                           	psect	text2,global,reloc=2,class=CODE,delta=1
    16                           	psect	text3,global,reloc=2,class=CODE,delta=1
    17                           	psect	text4,global,reloc=2,class=CODE,delta=1
    18                           	psect	text5,global,reloc=2,class=CODE,delta=1
    19                           	psect	text6,global,reloc=2,class=CODE,delta=1
    20                           	psect	text7,global,reloc=2,class=CODE,delta=1,group=1
    21                           	psect	text8,global,reloc=2,class=CODE,delta=1
    22                           	psect	text9,global,reloc=2,class=CODE,delta=1,group=1
    23                           	psect	text10,global,reloc=2,class=CODE,delta=1,group=1
    24                           	psect	text11,global,reloc=2,class=CODE,delta=1,group=1
    25                           	psect	text12,global,reloc=2,class=CODE,delta=1,group=1
    26                           	psect	text13,global,reloc=2,class=CODE,delta=1,group=1
    27                           	psect	text14,global,reloc=2,class=CODE,delta=1,group=1
    28                           	psect	text15,global,reloc=2,class=CODE,delta=1,group=1
    29                           	psect	text16,global,reloc=2,class=CODE,delta=1,group=1
    30                           	psect	text17,global,reloc=2,class=CODE,delta=1,group=1
    31                           	psect	text18,global,reloc=2,class=CODE,delta=1,group=1
    32                           	psect	text19,global,reloc=2,class=CODE,delta=1,group=1
    33                           	psect	text20,global,reloc=2,class=CODE,delta=1
    34                           	psect	text21,global,reloc=2,class=CODE,delta=1
    35                           	psect	text22,global,reloc=2,class=CODE,delta=1
    36                           	psect	text23,global,reloc=2,class=CODE,delta=1
    37                           	psect	text24,global,reloc=2,class=CODE,delta=1
    38                           	psect	text25,global,reloc=2,class=CODE,delta=1
    39                           	psect	text26,global,reloc=2,class=CODE,delta=1
    40                           	psect	text27,global,reloc=2,class=CODE,delta=1
    41                           	psect	text28,global,reloc=2,class=CODE,delta=1
    42                           	psect	text29,global,reloc=2,class=CODE,delta=1
    43                           	psect	text30,global,reloc=2,class=CODE,delta=1,group=1
    44                           	psect	text31,global,reloc=2,class=CODE,delta=1,group=1
    45                           	psect	text32,global,reloc=2,class=CODE,delta=1
    46                           	psect	text33,global,reloc=2,class=CODE,delta=1
    47                           	psect	text34,global,reloc=2,class=CODE,delta=1,group=1
    48                           	psect	text35,global,reloc=2,class=CODE,delta=1,group=1
    49                           	psect	text36,global,reloc=2,class=CODE,delta=1,group=1
    50                           	psect	text37,global,reloc=2,class=CODE,delta=1,group=1
    51                           	psect	text38,global,reloc=2,class=CODE,delta=1,group=1
    52                           	psect	text39,global,reloc=2,class=CODE,delta=1
    53                           	psect	text40,global,reloc=2,class=CODE,delta=1
    54                           	psect	text41,global,reloc=2,class=CODE,delta=1
    55                           	psect	text42,global,reloc=2,class=CODE,delta=1
    56                           	psect	intcode,global,reloc=2,class=CODE,delta=1
    57                           	psect	intcode_body,global,reloc=2,class=CODE,delta=1
    58                           	psect	intsave_regs,global,class=BIGRAM,space=1,delta=1,noexec
    59                           	psect	rparam,global,class=COMRAM,space=1,delta=1,noexec
    60                           	psect	temp,global,ovrld,common,class=COMRAM,space=1,delta=1
    61  0000                     
    62                           ; Version 1.45
    63                           ; Generated 16/11/2017 GMT
    64                           ; 
    65                           ; Copyright © 2017, Microchip Technology Inc. and its subsidiaries ("Microchip")
    66                           ; All rights reserved.
    67                           ; 
    68                           ; This software is developed by Microchip Technology Inc. and its subsidiaries ("Microch
      +                          ip").
    69                           ; 
    70                           ; Redistribution and use in source and binary forms, with or without modification, are
    71                           ; permitted provided that the following conditions are met:
    72                           ; 
    73                           ;     1. Redistributions of source code must retain the above copyright notice, this lis
      +                          t of
    74                           ;        conditions and the following disclaimer.
    75                           ; 
    76                           ;     2. Redistributions in binary form must reproduce the above copyright notice, this 
      +                          list
    77                           ;        of conditions and the following disclaimer in the documentation and/or other
    78                           ;        materials provided with the distribution.
    79                           ; 
    80                           ;     3. Microchip's name may not be used to endorse or promote products derived from th
      +                          is
    81                           ;        software without specific prior written permission.
    82                           ; 
    83                           ; THIS SOFTWARE IS PROVIDED BY MICROCHIP "AS IS" AND ANY EXPRESS OR IMPLIED WARRANTIES,
    84                           ; INCLUDING, BUT NOT LIMITED TO, THE IMPLIED WARRANTIES OF MERCHANTABILITY AND FITNESS F
      +                          OR
    85                           ; PURPOSE ARE DISCLAIMED.  IN NO EVENT SHALL MICROCHIP BE LIABLE FOR ANY DIRECT, INDIREC
      +                          T,
    86                           ; INCIDENTAL, SPECIAL, EXEMPLARY, OR CONSEQUENTIAL DAMAGES (INCLUDING BUT NOT LIMITED TO
    87                           ; PROCUREMENT OF SUBSTITUTE GOODS OR SERVICES; LOSS OF USE, DATA OR PROFITS; OR BUSINESS
    88                           ; INTERRUPTION) HOWSOEVER CAUSED AND ON ANY THEORY OF LIABILITY, WHETHER IN CONTRACT, ST
      +                          RICT
    89                           ; LIABILITY, OR TORT (INCLUDING NEGLIGENCE OR OTHERWISE) ARISING IN ANY WAY OUT OF THE U
      +                          SE OF
    90                           ; THIS SOFTWARE, EVEN IF ADVISED OF THE POSSIBILITY OF SUCH DAMAGE.
    91                           ; 
    92                           ; 
    93                           ; Code-generator required, PIC18F4620 Definitions
    94                           ; 
    95                           ; SFR Addresses
    96  0000                     
    97                           	psect	idataBANK0
    98  003658                     __pidataBANK0:
    99                           	opt stack 0
   100                           
   101                           ;initializer for _LCD_INIT_STRING
   102  003658  28                 	db	40
   103  003659  0C                 	db	12
   104  00365A  01                 	db	1
   105  00365B  06                 	db	6
   106                           
   107                           	psect	smallconst
   108  001000                     __psmallconst:
   109                           	opt stack 0
   110  001000  00                 	db	0
   111  001001                     _dpowers:
   112                           	opt stack 0
   113  001001  0001               	dw	1
   114  001003  0000               	dw	0
   115  001005  000A               	dw	10
   116  001007  0000               	dw	0
   117  001009  0064               	dw	100
   118  00100B  0000               	dw	0
   119  00100D  03E8               	dw	1000
   120  00100F  0000               	dw	0
   121  001011  2710               	dw	10000
   122  001013  0000               	dw	0
   123  001015  86A0               	dw	34464
   124  001017  0001               	dw	1
   125  001019  4240               	dw	16960
   126  00101B  000F               	dw	15
   127  00101D  9680               	dw	38528
   128  00101F  0098               	dw	152
   129  001021  E100               	dw	57600
   130  001023  05F5               	dw	1525
   131  001025  CA00               	dw	51712
   132  001027  3B9A               	dw	15258
   133  001029                     __end_of_dpowers:
   134                           	opt stack 0
   135  001029                     __powers_:
   136                           	opt stack 0
   137  001029  00                 	db	0
   138  00102A  80                 	db	128
   139  00102B  3F                 	db	63
   140  00102C  00                 	db	0
   141  00102D  20                 	db	32
   142  00102E  41                 	db	65
   143  00102F  00                 	db	0
   144  001030  C8                 	db	200
   145  001031  42                 	db	66
   146  001032  00                 	db	0
   147  001033  7A                 	db	122
   148  001034  44                 	db	68
   149  001035  40                 	db	64
   150  001036  1C                 	db	28
   151  001037  46                 	db	70
   152  001038  50                 	db	80
   153  001039  C3                 	db	195
   154  00103A  47                 	db	71
   155  00103B  24                 	db	36
   156  00103C  74                 	db	116
   157  00103D  49                 	db	73
   158  00103E  97                 	db	151
   159  00103F  18                 	db	24
   160  001040  4B                 	db	75
   161  001041  BC                 	db	188
   162  001042  BE                 	db	190
   163  001043  4C                 	db	76
   164  001044  6B                 	db	107
   165  001045  6E                 	db	110
   166  001046  4E                 	db	78
   167  001047  03                 	db	3
   168  001048  15                 	db	21
   169  001049  50                 	db	80
   170  00104A  79                 	db	121
   171  00104B  AD                 	db	173
   172  00104C  60                 	db	96
   173  00104D  F3                 	db	243
   174  00104E  49                 	db	73
   175  00104F  71                 	db	113
   176  001050                     __end_of__powers_:
   177                           	opt stack 0
   178  001050                     __npowers_:
   179                           	opt stack 0
   180  001050  00                 	db	0
   181  001051  80                 	db	128
   182  001052  3F                 	db	63
   183  001053  CD                 	db	205
   184  001054  CC                 	db	204
   185  001055  3D                 	db	61
   186  001056  D7                 	db	215
   187  001057  23                 	db	35
   188  001058  3C                 	db	60
   189  001059  12                 	db	18
   190  00105A  83                 	db	131
   191  00105B  3A                 	db	58
   192  00105C  B7                 	db	183
   193  00105D  D1                 	db	209
   194  00105E  38                 	db	56
   195  00105F  C6                 	db	198
   196  001060  27                 	db	39
   197  001061  37                 	db	55
   198  001062  38                 	db	56
   199  001063  86                 	db	134
   200  001064  35                 	db	53
   201  001065  C0                 	db	192
   202  001066  D6                 	db	214
   203  001067  33                 	db	51
   204  001068  CC                 	db	204
   205  001069  2B                 	db	43
   206  00106A  32                 	db	50
   207  00106B  70                 	db	112
   208  00106C  89                 	db	137
   209  00106D  30                 	db	48
   210  00106E  E7                 	db	231
   211  00106F  DB                 	db	219
   212  001070  2E                 	db	46
   213  001071  E5                 	db	229
   214  001072  3C                 	db	60
   215  001073  1E                 	db	30
   216  001074  42                 	db	66
   217  001075  A2                 	db	162
   218  001076  0D                 	db	13
   219  001077                     __end_of__npowers_:
   220                           	opt stack 0
   221  0000                     _TMR1	set	4046
   222  0000                     _ADRESL	set	4035
   223  0000                     _ADRESH	set	4036
   224  0000                     _ADCON2	set	4032
   225  0000                     _ADCON0bits	set	4034
   226  0000                     _ADCON0	set	4034
   227  0000                     _CCP1CONbits	set	4029
   228  0000                     _CCPR1L	set	4030
   229  0000                     _TRISCbits	set	3988
   230  0000                     _T2CON	set	4042
   231  0000                     _PR2	set	4043
   232  0000                     _PORTEbits	set	3972
   233  0000                     _T2CONbits	set	4042
   234  0000                     _CCPR2L	set	4027
   235  0000                     _CCPR2H	set	4028
   236  0000                     _CCP1CON	set	4029
   237  0000                     _T1CONbits	set	4045
   238  0000                     _T1CON	set	4045
   239  0000                     _CCP2CON	set	4026
   240  0000                     _PIR2bits	set	4001
   241  0000                     _PIE2bits	set	4000
   242  0000                     _PIR1bits	set	3998
   243  0000                     _PIE1bits	set	3997
   244  0000                     _INTCON3bits	set	4080
   245  0000                     _INTCONbits	set	4082
   246  0000                     _INTCON2bits	set	4081
   247  0000                     _RCONbits	set	4048
   248  0000                     _PORTCbits	set	3970
   249  0000                     _TRISE	set	3990
   250  0000                     _TRISD	set	3989
   251  0000                     _TRISC	set	3988
   252  0000                     _TRISB	set	3987
   253  0000                     _TRISA	set	3986
   254  0000                     _LATE	set	3981
   255  0000                     _LATD	set	3980
   256  0000                     _LATC	set	3979
   257  0000                     _LATB	set	3978
   258  0000                     _LATA	set	3977
   259  0000                     _ADCON1	set	4033
   260  0000                     _PORTBbits	set	3969
   261  001077                     STR_3:
   262  001077  48                 	db	72	;'H'
   263  001078  53                 	db	83	;'S'
   264  001079  3A                 	db	58	;':'
   265  00107A  25                 	db	37
   266  00107B  64                 	db	100	;'d'
   267  00107C  20                 	db	32
   268  00107D  20                 	db	32
   269  00107E  48                 	db	72	;'H'
   270  00107F  43                 	db	67	;'C'
   271  001080  3A                 	db	58	;':'
   272  001081  25                 	db	37
   273  001082  34                 	db	52	;'4'
   274  001083  2E                 	db	46
   275  001084  31                 	db	49	;'1'
   276  001085  66                 	db	102	;'f'
   277  001086  25                 	db	37
   278  001087  25                 	db	37
   279  001088  00                 	db	0
   280  001089                     STR_2:
   281  001089  53                 	db	83	;'S'
   282  00108A  50                 	db	80	;'P'
   283  00108B  3A                 	db	58	;':'
   284  00108C  25                 	db	37
   285  00108D  34                 	db	52	;'4'
   286  00108E  2E                 	db	46
   287  00108F  31                 	db	49	;'1'
   288  001090  66                 	db	102	;'f'
   289  001091  43                 	db	67	;'C'
   290  001092  20                 	db	32
   291  001093  20                 	db	32
   292  001094  20                 	db	32
   293  001095  25                 	db	37
   294  001096  63                 	db	99	;'c'
   295  001097  20                 	db	32
   296  001098  25                 	db	37
   297  001099  63                 	db	99	;'c'
   298  00109A  00                 	db	0
   299  00109B                     STR_1:
   300  00109B  52                 	db	82	;'R'
   301  00109C  54                 	db	84	;'T'
   302  00109D  3A                 	db	58	;':'
   303  00109E  25                 	db	37
   304  00109F  34                 	db	52	;'4'
   305  0010A0  2E                 	db	46
   306  0010A1  31                 	db	49	;'1'
   307  0010A2  66                 	db	102	;'f'
   308  0010A3  43                 	db	67	;'C'
   309  0010A4  20                 	db	32
   310  0010A5  20                 	db	32
   311  0010A6  20                 	db	32
   312  0010A7  48                 	db	72	;'H'
   313  0010A8  20                 	db	32
   314  0010A9  43                 	db	67	;'C'
   315  0010AA  00                 	db	0
   316  0010AB                     STR_4:
   317  0010AB  4D                 	db	77	;'M'
   318  0010AC  44                 	db	68	;'D'
   319  0010AD  3A                 	db	58	;':'
   320  0010AE  20                 	db	32
   321  0010AF  4F                 	db	79	;'O'
   322  0010B0  46                 	db	70	;'F'
   323  0010B1  46                 	db	70	;'F'
   324  0010B2  20                 	db	32
   325  0010B3  20                 	db	32
   326  0010B4  20                 	db	32
   327  0010B5  20                 	db	32
   328  0010B6  20                 	db	32
   329  0010B7  20                 	db	32
   330  0010B8  20                 	db	32
   331  0010B9  00                 	db	0
   332  0010BA                     STR_6:
   333  0010BA  4D                 	db	77	;'M'
   334  0010BB  44                 	db	68	;'D'
   335  0010BC  3A                 	db	58	;':'
   336  0010BD  20                 	db	32
   337  0010BE  43                 	db	67	;'C'
   338  0010BF  4F                 	db	79	;'O'
   339  0010C0  4F                 	db	79	;'O'
   340  0010C1  4C                 	db	76	;'L'
   341  0010C2  20                 	db	32
   342  0010C3  20                 	db	32
   343  0010C4  20                 	db	32
   344  0010C5  20                 	db	32
   345  0010C6  20                 	db	32
   346  0010C7  20                 	db	32
   347  0010C8  00                 	db	0
   348  0010C9                     STR_5:
   349  0010C9  4D                 	db	77	;'M'
   350  0010CA  44                 	db	68	;'D'
   351  0010CB  3A                 	db	58	;':'
   352  0010CC  20                 	db	32
   353  0010CD  48                 	db	72	;'H'
   354  0010CE  45                 	db	69	;'E'
   355  0010CF  41                 	db	65	;'A'
   356  0010D0  54                 	db	84	;'T'
   357  0010D1  20                 	db	32
   358  0010D2  20                 	db	32
   359  0010D3  20                 	db	32
   360  0010D4  20                 	db	32
   361  0010D5  20                 	db	32
   362  0010D6  20                 	db	32
   363  0010D7  00                 	db	0
   364  0010D8                     STR_7:
   365  0010D8  4D                 	db	77	;'M'
   366  0010D9  44                 	db	68	;'D'
   367  0010DA  3A                 	db	58	;':'
   368  0010DB  20                 	db	32
   369  0010DC  41                 	db	65	;'A'
   370  0010DD  55                 	db	85	;'U'
   371  0010DE  54                 	db	84	;'T'
   372  0010DF  4F                 	db	79	;'O'
   373  0010E0  20                 	db	32
   374  0010E1  43                 	db	67	;'C'
   375  0010E2  4F                 	db	79	;'O'
   376  0010E3  4F                 	db	79	;'O'
   377  0010E4  4C                 	db	76	;'L'
   378  0010E5  20                 	db	32
   379  0010E6  00                 	db	0
   380  0010E7  00                 	db	0	; dummy byte at the end
   381  0000                     
   382                           ; #config settings
   383                           
   384                           	psect	cinit
   385  003302                     __pcinit:
   386                           	opt stack 0
   387  003302                     start_initialization:
   388                           	opt stack 0
   389  003302                     __initialization:
   390                           	opt stack 0
   391                           
   392                           ; Initialize objects allocated to BANK0 (4 bytes)
   393                           ; load TBLPTR registers with __pidataBANK0
   394  003302  0E58               	movlw	low __pidataBANK0
   395  003304  6EF6               	movwf	tblptrl,c
   396  003306  0E36               	movlw	high __pidataBANK0
   397  003308  6EF7               	movwf	tblptrh,c
   398  00330A  0E00               	movlw	low (__pidataBANK0 shr (0+16))
   399  00330C  6EF8               	movwf	tblptru,c
   400  00330E  EE00  F0E0         	lfsr	0,__pdataBANK0
   401  003312  EE10 F004          	lfsr	1,4
   402  003316                     copy_data0:
   403  003316  0009               	tblrd		*+
   404  003318  CFF5 FFEE          	movff	tablat,postinc0
   405  00331C  50E5               	movf	postdec1,w,c
   406  00331E  50E1               	movf	fsr1l,w,c
   407  003320  E1FA               	bnz	copy_data0
   408                           
   409                           ; Clear objects allocated to BANK0 (44 bytes)
   410  003322  EE00  F0B4         	lfsr	0,__pbssBANK0
   411  003326  0E2C               	movlw	44
   412  003328                     clear_0:
   413  003328  6AEE               	clrf	postinc0,c
   414  00332A  06E8               	decf	wreg,f,c
   415  00332C  E1FD               	bnz	clear_0
   416                           
   417                           ; Clear objects allocated to COMRAM (19 bytes)
   418  00332E  EE00  F058         	lfsr	0,__pbssCOMRAM
   419  003332  0E13               	movlw	19
   420  003334                     clear_1:
   421  003334  6AEE               	clrf	postinc0,c
   422  003336  06E8               	decf	wreg,f,c
   423  003338  E1FD               	bnz	clear_1
   424  00333A                     end_of_initialization:
   425                           	opt stack 0
   426  00333A                     __end_of__initialization:
   427                           	opt stack 0
   428  00333A  906B               	bcf	int$flags,0,c	;clear compiler interrupt flag (level 1)
   429  00333C  926B               	bcf	int$flags,1,c	;clear compiler interrupt flag (level 2)
   430  00333E  0E00               	movlw	low (__Lmediumconst shr (0+16))
   431  003340  6EF8               	movwf	tblptru,c
   432  003342  0100               	movlb	0
   433  003344  EFB1  F00F         	goto	_main	;jump to C main() function
   434                           tblptru	equ	0xFF8
   435                           tblptrh	equ	0xFF7
   436                           tblptrl	equ	0xFF6
   437                           tablat	equ	0xFF5
   438                           postinc0	equ	0xFEE
   439                           wreg	equ	0xFE8
   440                           postdec1	equ	0xFE5
   441                           fsr1l	equ	0xFE1
   442                           
   443                           	psect	bssCOMRAM
   444  000058                     __pbssCOMRAM:
   445                           	opt stack 0
   446  000058                     _T:
   447                           	opt stack 0
   448  000058                     	ds	3
   449  00005B                     _SP:
   450                           	opt stack 0
   451  00005B                     	ds	3
   452  00005E                     _raw_AI2:
   453                           	opt stack 0
   454  00005E                     	ds	2
   455  000060                     _raw_AI1:
   456                           	opt stack 0
   457  000060                     	ds	2
   458  000062                     _raw_AI0:
   459                           	opt stack 0
   460  000062                     	ds	2
   461  000064                     _coolerOn:
   462                           	opt stack 0
   463  000064                     	ds	1
   464  000065                     _heaterOn:
   465                           	opt stack 0
   466  000065                     	ds	1
   467  000066                     _off_flag:
   468                           	opt stack 0
   469  000066                     	ds	1
   470  000067                     _hs_change_flag:
   471                           	opt stack 0
   472  000067                     	ds	1
   473  000068                     _mode_change_flag:
   474                           	opt stack 0
   475  000068                     	ds	1
   476  000069                     _Hs:
   477                           	opt stack 0
   478  000069                     	ds	1
   479  00006A                     _currentMode:
   480                           	opt stack 0
   481  00006A                     	ds	1
   482                           tblptru	equ	0xFF8
   483                           tblptrh	equ	0xFF7
   484                           tblptrl	equ	0xFF6
   485                           tablat	equ	0xFF5
   486                           postinc0	equ	0xFEE
   487                           wreg	equ	0xFE8
   488                           postdec1	equ	0xFE5
   489                           fsr1l	equ	0xFE1
   490                           
   491                           	psect	bssBANK0
   492  0000B4                     __pbssBANK0:
   493                           	opt stack 0
   494  0000B4                     _AI2_voltage:
   495                           	opt stack 0
   496  0000B4                     	ds	3
   497  0000B7                     _AI1_voltage:
   498                           	opt stack 0
   499  0000B7                     	ds	3
   500  0000BA                     _AI0_voltage:
   501                           	opt stack 0
   502  0000BA                     	ds	3
   503  0000BD                     _HC:
   504                           	opt stack 0
   505  0000BD                     	ds	3
   506  0000C0                     _Buffer:
   507                           	opt stack 0
   508  0000C0                     	ds	32
   509                           tblptru	equ	0xFF8
   510                           tblptrh	equ	0xFF7
   511                           tblptrl	equ	0xFF6
   512                           tablat	equ	0xFF5
   513                           postinc0	equ	0xFEE
   514                           wreg	equ	0xFE8
   515                           postdec1	equ	0xFE5
   516                           fsr1l	equ	0xFE1
   517                           
   518                           	psect	dataBANK0
   519  0000E0                     __pdataBANK0:
   520                           	opt stack 0
   521  0000E0                     _LCD_INIT_STRING:
   522                           	opt stack 0
   523  0000E0                     	ds	4
   524                           tblptru	equ	0xFF8
   525                           tblptrh	equ	0xFF7
   526                           tblptrl	equ	0xFF6
   527                           tablat	equ	0xFF5
   528                           postinc0	equ	0xFEE
   529                           wreg	equ	0xFE8
   530                           postdec1	equ	0xFE5
   531                           fsr1l	equ	0xFE1
   532                           
   533                           	psect	cstackBANK0
   534  000080                     __pcstackBANK0:
   535                           	opt stack 0
   536  000080                     ?_sprintf:
   537                           	opt stack 0
   538  000080                     sprintf@sp:
   539                           	opt stack 0
   540                           
   541                           ; 2 bytes @ 0x0
   542  000080                     	ds	2
   543  000082                     sprintf@f:
   544                           	opt stack 0
   545                           
   546                           ; 2 bytes @ 0x2
   547  000082                     	ds	9
   548  00008B                     ??_sprintf:
   549                           
   550                           ; 1 bytes @ 0xB
   551  00008B                     	ds	6
   552  000091                     _sprintf$1800:
   553                           	opt stack 0
   554                           
   555                           ; 3 bytes @ 0x11
   556  000091                     	ds	3
   557  000094                     sprintf@cp:
   558                           	opt stack 0
   559                           
   560                           ; 2 bytes @ 0x14
   561  000094                     	ds	2
   562  000096                     sprintf@ap:
   563                           	opt stack 0
   564                           
   565                           ; 2 bytes @ 0x16
   566  000096                     	ds	2
   567  000098                     sprintf@len:
   568                           	opt stack 0
   569                           
   570                           ; 2 bytes @ 0x18
   571  000098                     	ds	2
   572  00009A                     sprintf@flag:
   573                           	opt stack 0
   574                           
   575                           ; 2 bytes @ 0x1A
   576  00009A                     	ds	2
   577  00009C                     sprintf@tmpval:
   578                           	opt stack 0
   579                           
   580                           ; 4 bytes @ 0x1C
   581  00009C                     	ds	4
   582  0000A0                     sprintf@val:
   583                           	opt stack 0
   584                           
   585                           ; 4 bytes @ 0x20
   586  0000A0                     	ds	4
   587  0000A4                     sprintf@exp:
   588                           	opt stack 0
   589                           
   590                           ; 2 bytes @ 0x24
   591  0000A4                     	ds	2
   592  0000A6                     sprintf@width:
   593                           	opt stack 0
   594                           
   595                           ; 2 bytes @ 0x26
   596  0000A6                     	ds	2
   597  0000A8                     sprintf@fval:
   598                           	opt stack 0
   599                           
   600                           ; 3 bytes @ 0x28
   601  0000A8                     	ds	3
   602  0000AB                     sprintf@prec:
   603                           	opt stack 0
   604                           
   605                           ; 2 bytes @ 0x2B
   606  0000AB                     	ds	2
   607  0000AD                     sprintf@c:
   608                           	opt stack 0
   609                           
   610                           ; 1 bytes @ 0x2D
   611  0000AD                     	ds	1
   612  0000AE                     printingOnLCD@h:
   613                           	opt stack 0
   614                           
   615                           ; 1 bytes @ 0x2E
   616  0000AE                     	ds	1
   617  0000AF                     printingOnLCD@c:
   618                           	opt stack 0
   619                           
   620                           ; 1 bytes @ 0x2F
   621  0000AF                     	ds	1
   622  0000B0                     _printingOnLCD$796:
   623                           	opt stack 0
   624                           
   625                           ; 2 bytes @ 0x30
   626  0000B0                     	ds	2
   627  0000B2                     _printingOnLCD$798:
   628                           	opt stack 0
   629                           
   630                           ; 2 bytes @ 0x32
   631  0000B2                     	ds	2
   632                           tblptru	equ	0xFF8
   633                           tblptrh	equ	0xFF7
   634                           tblptrl	equ	0xFF6
   635                           tablat	equ	0xFF5
   636                           postinc0	equ	0xFEE
   637                           wreg	equ	0xFE8
   638                           postdec1	equ	0xFE5
   639                           fsr1l	equ	0xFE1
   640                           
   641                           	psect	cstackCOMRAM
   642  000001                     __pcstackCOMRAM:
   643                           	opt stack 0
   644  000001                     ??_highIsr:
   645  000001                     
   646                           ; 1 bytes @ 0x0
   647  000001                     	ds	18
   648  000013                     ??_HeatMode:
   649  000013                     ??_isdigit:
   650  000013                     ??_delay_cycles:
   651  000013                     ?_read_adc_raw_no_lib:
   652                           	opt stack 0
   653  000013                     ?___awmod:
   654                           	opt stack 0
   655  000013                     ?___ftpack:
   656                           	opt stack 0
   657  000013                     ?__tdiv_to_l_:
   658                           	opt stack 0
   659  000013                     ?__div_to_l_:
   660                           	opt stack 0
   661  000013                     ?___lldiv:
   662                           	opt stack 0
   663  000013                     delay_ms@n:
   664                           	opt stack 0
   665  000013                     set_pwm1_raw@raw_value:
   666                           	opt stack 0
   667  000013                     ___awmod@dividend:
   668                           	opt stack 0
   669  000013                     __div_to_l_@f1:
   670                           	opt stack 0
   671  000013                     ___ftpack@arg:
   672                           	opt stack 0
   673  000013                     __tdiv_to_l_@f1:
   674                           	opt stack 0
   675  000013                     ___lldiv@dividend:
   676                           	opt stack 0
   677                           
   678                           ; 4 bytes @ 0x12
   679  000013                     	ds	1
   680  000014                     _isdigit$1441:
   681                           	opt stack 0
   682                           
   683                           ; 1 bytes @ 0x13
   684  000014                     	ds	1
   685  000015                     ??_read_adc_raw_no_lib:
   686  000015                     ??_set_pwm1_raw:
   687  000015                     isdigit@c:
   688                           	opt stack 0
   689  000015                     HeatMode@compare_value:
   690                           	opt stack 0
   691  000015                     delay_ms@x:
   692                           	opt stack 0
   693  000015                     ___awmod@divisor:
   694                           	opt stack 0
   695                           
   696                           ; 2 bytes @ 0x14
   697  000015                     	ds	1
   698  000016                     delay_cycles@n:
   699                           	opt stack 0
   700  000016                     ___ftpack@exp:
   701                           	opt stack 0
   702  000016                     __div_to_l_@f2:
   703                           	opt stack 0
   704  000016                     __tdiv_to_l_@f2:
   705                           	opt stack 0
   706                           
   707                           ; 3 bytes @ 0x15
   708  000016                     	ds	1
   709  000017                     ___awmod@counter:
   710                           	opt stack 0
   711  000017                     ___ftpack@sign:
   712                           	opt stack 0
   713  000017                     delay_cycles@x:
   714                           	opt stack 0
   715  000017                     read_adc_raw_no_lib@raw_value:
   716                           	opt stack 0
   717  000017                     ___lldiv@divisor:
   718                           	opt stack 0
   719                           
   720                           ; 4 bytes @ 0x16
   721  000017                     	ds	1
   722  000018                     ??___ftpack:
   723  000018                     ___awmod@sign:
   724                           	opt stack 0
   725                           
   726                           ; 1 bytes @ 0x17
   727  000018                     	ds	1
   728  000019                     ??__tdiv_to_l_:
   729  000019                     ??_lcd_send_nibble:
   730  000019                     ?___awdiv:
   731                           	opt stack 0
   732  000019                     read_adc_raw_no_lib@channel:
   733                           	opt stack 0
   734  000019                     ___awdiv@dividend:
   735                           	opt stack 0
   736  000019                     __div_to_l_@quot:
   737                           	opt stack 0
   738                           
   739                           ; 4 bytes @ 0x18
   740  000019                     	ds	1
   741  00001A                     lcd_send_nibble@n:
   742                           	opt stack 0
   743                           
   744                           ; 1 bytes @ 0x19
   745  00001A                     	ds	1
   746  00001B                     ?___lbtoft:
   747                           	opt stack 0
   748  00001B                     ?___lltoft:
   749                           	opt stack 0
   750  00001B                     ?___lwtoft:
   751                           	opt stack 0
   752  00001B                     lcd_send_byte@n:
   753                           	opt stack 0
   754  00001B                     ___awdiv@divisor:
   755                           	opt stack 0
   756  00001B                     ___lwtoft@c:
   757                           	opt stack 0
   758  00001B                     ___lldiv@quotient:
   759                           	opt stack 0
   760  00001B                     ___lltoft@c:
   761                           	opt stack 0
   762                           
   763                           ; 4 bytes @ 0x1A
   764  00001B                     	ds	1
   765  00001C                     lcd_send_byte@cm_data:
   766                           	opt stack 0
   767  00001C                     __tdiv_to_l_@quot:
   768                           	opt stack 0
   769                           
   770                           ; 4 bytes @ 0x1B
   771  00001C                     	ds	1
   772  00001D                     lcd_init@i:
   773                           	opt stack 0
   774  00001D                     lcd_gotoxy@y:
   775                           	opt stack 0
   776  00001D                     ___awdiv@counter:
   777                           	opt stack 0
   778  00001D                     __div_to_l_@cntr:
   779                           	opt stack 0
   780                           
   781                           ; 1 bytes @ 0x1C
   782  00001D                     	ds	1
   783  00001E                     lcd_gotoxy@x:
   784                           	opt stack 0
   785  00001E                     ___awdiv@sign:
   786                           	opt stack 0
   787  00001E                     __div_to_l_@exp1:
   788                           	opt stack 0
   789  00001E                     ___lbtoft@c:
   790                           	opt stack 0
   791                           
   792                           ; 1 bytes @ 0x1D
   793  00001E                     	ds	1
   794  00001F                     ??___lltoft:
   795  00001F                     ?___ftneg:
   796                           	opt stack 0
   797  00001F                     lcd_gotoxy@address:
   798                           	opt stack 0
   799  00001F                     ___lldiv@counter:
   800                           	opt stack 0
   801  00001F                     ___awdiv@quotient:
   802                           	opt stack 0
   803  00001F                     ___ftneg@f1:
   804                           	opt stack 0
   805                           
   806                           ; 3 bytes @ 0x1E
   807  00001F                     	ds	1
   808  000020                     ?___llmod:
   809                           	opt stack 0
   810  000020                     lcd_putc@c:
   811                           	opt stack 0
   812  000020                     __tdiv_to_l_@cntr:
   813                           	opt stack 0
   814  000020                     ___llmod@dividend:
   815                           	opt stack 0
   816                           
   817                           ; 4 bytes @ 0x1F
   818  000020                     	ds	1
   819  000021                     ?___wmul:
   820                           	opt stack 0
   821  000021                     __tdiv_to_l_@exp1:
   822                           	opt stack 0
   823  000021                     lcd_puts@s:
   824                           	opt stack 0
   825  000021                     ___wmul@multiplier:
   826                           	opt stack 0
   827                           
   828                           ; 2 bytes @ 0x20
   829  000021                     	ds	1
   830  000022                     
   831                           ; 1 bytes @ 0x21
   832  000022                     	ds	1
   833  000023                     ___lltoft@exp:
   834                           	opt stack 0
   835  000023                     ___wmul@multiplicand:
   836                           	opt stack 0
   837                           
   838                           ; 2 bytes @ 0x22
   839  000023                     	ds	1
   840  000024                     ___llmod@divisor:
   841                           	opt stack 0
   842                           
   843                           ; 4 bytes @ 0x23
   844  000024                     	ds	1
   845  000025                     ___wmul@product:
   846                           	opt stack 0
   847                           
   848                           ; 2 bytes @ 0x24
   849  000025                     	ds	2
   850  000027                     ?___ftmul:
   851                           	opt stack 0
   852  000027                     ___ftmul@f1:
   853                           	opt stack 0
   854                           
   855                           ; 3 bytes @ 0x26
   856  000027                     	ds	1
   857  000028                     ___llmod@counter:
   858                           	opt stack 0
   859                           
   860                           ; 1 bytes @ 0x27
   861  000028                     	ds	2
   862  00002A                     ___ftmul@f2:
   863                           	opt stack 0
   864                           
   865                           ; 3 bytes @ 0x29
   866  00002A                     	ds	3
   867  00002D                     ??___ftmul:
   868                           
   869                           ; 1 bytes @ 0x2C
   870  00002D                     	ds	3
   871  000030                     ___ftmul@exp:
   872                           	opt stack 0
   873                           
   874                           ; 1 bytes @ 0x2F
   875  000030                     	ds	1
   876  000031                     ___ftmul@f3_as_product:
   877                           	opt stack 0
   878                           
   879                           ; 3 bytes @ 0x30
   880  000031                     	ds	3
   881  000034                     ___ftmul@cntr:
   882                           	opt stack 0
   883                           
   884                           ; 1 bytes @ 0x33
   885  000034                     	ds	1
   886  000035                     ___ftmul@sign:
   887                           	opt stack 0
   888                           
   889                           ; 1 bytes @ 0x34
   890  000035                     	ds	1
   891  000036                     ?___ftdiv:
   892                           	opt stack 0
   893  000036                     ?_fround:
   894                           	opt stack 0
   895  000036                     ?_scale:
   896                           	opt stack 0
   897  000036                     ___ftdiv@f1:
   898                           	opt stack 0
   899                           
   900                           ; 3 bytes @ 0x35
   901  000036                     	ds	3
   902  000039                     ___ftdiv@f2:
   903                           	opt stack 0
   904  000039                     _fround$1798:
   905                           	opt stack 0
   906  000039                     _scale$1799:
   907                           	opt stack 0
   908                           
   909                           ; 3 bytes @ 0x38
   910  000039                     	ds	3
   911  00003C                     ??___ftdiv:
   912  00003C                     scale@scl:
   913                           	opt stack 0
   914  00003C                     _fround$1797:
   915                           	opt stack 0
   916                           
   917                           ; 3 bytes @ 0x3B
   918  00003C                     	ds	1
   919  00003D                     ?___fttol:
   920                           	opt stack 0
   921  00003D                     ___fttol@f1:
   922                           	opt stack 0
   923                           
   924                           ; 3 bytes @ 0x3C
   925  00003D                     	ds	2
   926  00003F                     fround@prec:
   927                           	opt stack 0
   928  00003F                     ___ftdiv@cntr:
   929                           	opt stack 0
   930                           
   931                           ; 1 bytes @ 0x3E
   932  00003F                     	ds	1
   933  000040                     ?___ftadd:
   934                           	opt stack 0
   935  000040                     ___ftadd@f1:
   936                           	opt stack 0
   937  000040                     ___ftdiv@f3:
   938                           	opt stack 0
   939                           
   940                           ; 3 bytes @ 0x3F
   941  000040                     	ds	1
   942  000041                     ??___fttol:
   943                           
   944                           ; 1 bytes @ 0x40
   945  000041                     	ds	2
   946  000043                     ___ftdiv@exp:
   947                           	opt stack 0
   948  000043                     ___ftadd@f2:
   949                           	opt stack 0
   950                           
   951                           ; 3 bytes @ 0x42
   952  000043                     	ds	1
   953  000044                     ___ftdiv@sign:
   954                           	opt stack 0
   955                           
   956                           ; 1 bytes @ 0x43
   957  000044                     	ds	2
   958  000046                     ??___ftadd:
   959  000046                     ___fttol@sign1:
   960                           	opt stack 0
   961                           
   962                           ; 1 bytes @ 0x45
   963  000046                     	ds	1
   964  000047                     ___fttol@lval:
   965                           	opt stack 0
   966                           
   967                           ; 4 bytes @ 0x46
   968  000047                     	ds	2
   969  000049                     ___ftadd@sign:
   970                           	opt stack 0
   971                           
   972                           ; 1 bytes @ 0x48
   973  000049                     	ds	1
   974  00004A                     ___ftadd@exp2:
   975                           	opt stack 0
   976                           
   977                           ; 1 bytes @ 0x49
   978  00004A                     	ds	1
   979  00004B                     ___ftadd@exp1:
   980                           	opt stack 0
   981  00004B                     ___fttol@exp1:
   982                           	opt stack 0
   983                           
   984                           ; 1 bytes @ 0x4A
   985  00004B                     	ds	1
   986  00004C                     ?___ftsub:
   987                           	opt stack 0
   988  00004C                     ___ftge@ff1:
   989                           	opt stack 0
   990  00004C                     ___ftsub@f1:
   991                           	opt stack 0
   992                           
   993                           ; 3 bytes @ 0x4B
   994  00004C                     	ds	3
   995  00004F                     ___ftge@ff2:
   996                           	opt stack 0
   997  00004F                     ___ftsub@f2:
   998                           	opt stack 0
   999                           
  1000                           ; 3 bytes @ 0x4E
  1001  00004F                     	ds	3
  1002  000052                     ??___ftge:
  1003                           
  1004                           ; 1 bytes @ 0x51
  1005  000052                     	ds	3
  1006  000055                     AutoCoolMode@coolError:
  1007                           	opt stack 0
  1008                           
  1009                           ; 3 bytes @ 0x54
  1010  000055                     	ds	3
  1011  000058                     tblptru	equ	0xFF8
  1012                           tblptrh	equ	0xFF7
  1013                           tblptrl	equ	0xFF6
  1014                           tablat	equ	0xFF5
  1015                           postinc0	equ	0xFEE
  1016                           wreg	equ	0xFE8
  1017                           postdec1	equ	0xFE5
  1018                           fsr1l	equ	0xFE1
  1019                           
  1020                           ; 1 bytes @ 0x57
  1021 ;;
  1022 ;;Main: autosize = 0, tempsize = 0, incstack = 0, save=0
  1023 ;;
  1024 ;; *************** function _main *****************
  1025 ;; Defined at:
  1026 ;;		line 72 in file "Hw2.c"
  1027 ;; Parameters:    Size  Location     Type
  1028 ;;		None
  1029 ;; Auto vars:     Size  Location     Type
  1030 ;;		None
  1031 ;; Return value:  Size  Location     Type
  1032 ;;                  1    wreg      void 
  1033 ;; Registers used:
  1034 ;;		wreg, fsr0l, fsr0h, fsr1l, fsr1h, fsr2l, fsr2h, status,2, status,0, tblptrl, tblptrh, tblptru, prodl, prodh, cstack
  1035 ;; Tracked objects:
  1036 ;;		On entry : 0/0
  1037 ;;		On exit  : 0/0
  1038 ;;		Unchanged: 0/0
  1039 ;; Data sizes:     COMRAM   BANK0   BANK1   BANK2   BANK3   BANK4   BANK5   BANK6   BANK7   BANK8   BANK9  BANK10  BANK1
      +1  BANK12  BANK13  BANK14  BANK15
  1040 ;;      Params:         0       0       0       0       0       0       0       0       0       0       0       0       
      +0       0       0       0       0
  1041 ;;      Locals:         0       0       0       0       0       0       0       0       0       0       0       0       
      +0       0       0       0       0
  1042 ;;      Temps:          0       0       0       0       0       0       0       0       0       0       0       0       
      +0       0       0       0       0
  1043 ;;      Totals:         0       0       0       0       0       0       0       0       0       0       0       0       
      +0       0       0       0       0
  1044 ;;Total ram usage:        0 bytes
  1045 ;; Hardware stack levels required when called:    8
  1046 ;; This function calls:
  1047 ;;		_AutoCoolMode
  1048 ;;		_CoolMode
  1049 ;;		_HeatMode
  1050 ;;		_OffMode
  1051 ;;		___ftdiv
  1052 ;;		___ftmul
  1053 ;;		___lwtoft
  1054 ;;		_delay_ms
  1055 ;;		_initPorts
  1056 ;;		_init_adc_no_lib
  1057 ;;		_init_pwm1
  1058 ;;		_lcd_init
  1059 ;;		_printingOnLCD
  1060 ;;		_read_adc_raw_no_lib
  1061 ;;		_setupCompare
  1062 ;;		_setupInterrupts
  1063 ;; This function is called by:
  1064 ;;		Startup code after reset
  1065 ;; This function uses a non-reentrant model
  1066 ;;
  1067                           
  1068                           	psect	text0
  1069  001F62                     __ptext0:
  1070                           	opt stack 0
  1071  001F62                     _main:
  1072                           	opt stack 23
  1073                           
  1074                           ;Hw2.c: 74: initPorts();
  1075                           
  1076                           ;incstack = 0
  1077  001F62  EC35  F01A         	call	_initPorts	;wreg free
  1078                           
  1079                           ;Hw2.c: 75: setupInterrupts();
  1080  001F66  ECD2  F01A         	call	_setupInterrupts	;wreg free
  1081                           
  1082                           ;Hw2.c: 76: lcd_init();
  1083  001F6A  ECA8  F018         	call	_lcd_init	;wreg free
  1084                           
  1085                           ;Hw2.c: 77: init_adc_no_lib();
  1086  001F6E  EC26  F01B         	call	_init_adc_no_lib	;wreg free
  1087                           
  1088                           ;Hw2.c: 78: setupCompare();
  1089  001F72  ECF4  F01A         	call	_setupCompare	;wreg free
  1090                           
  1091                           ;Hw2.c: 79: init_pwm1();
  1092  001F76  EC1E  F01B         	call	_init_pwm1	;wreg free
  1093  001F7A                     l133:
  1094  001F7A  0004               	clrwdt		;# 
  1095                           
  1096                           ;Hw2.c: 88: raw_AI0 = read_adc_raw_no_lib(0);
  1097  001F7C  0E00               	movlw	0
  1098  001F7E  ECE5  F019         	call	_read_adc_raw_no_lib
  1099  001F82  C013  F062         	movff	?_read_adc_raw_no_lib,_raw_AI0
  1100  001F86  C014  F063         	movff	?_read_adc_raw_no_lib+1,_raw_AI0+1
  1101                           
  1102                           ;Hw2.c: 89: raw_AI1 = read_adc_raw_no_lib(1);
  1103  001F8A  0E01               	movlw	1
  1104  001F8C  ECE5  F019         	call	_read_adc_raw_no_lib
  1105  001F90  C013  F060         	movff	?_read_adc_raw_no_lib,_raw_AI1
  1106  001F94  C014  F061         	movff	?_read_adc_raw_no_lib+1,_raw_AI1+1
  1107                           
  1108                           ;Hw2.c: 90: raw_AI2 = read_adc_raw_no_lib(2);
  1109  001F98  0E02               	movlw	2
  1110  001F9A  ECE5  F019         	call	_read_adc_raw_no_lib
  1111  001F9E  C013  F05E         	movff	?_read_adc_raw_no_lib,_raw_AI2
  1112  001FA2  C014  F05F         	movff	?_read_adc_raw_no_lib+1,_raw_AI2+1
  1113                           
  1114                           ;Hw2.c: 92: AI0_voltage = (raw_AI0 * 5.0f) / 1023.0f;
  1115  001FA6  0E00               	movlw	0
  1116  001FA8  6E2A               	movwf	___ftmul@f2,c
  1117  001FAA  0EA0               	movlw	160
  1118  001FAC  6E2B               	movwf	___ftmul@f2+1,c
  1119  001FAE  0E40               	movlw	64
  1120  001FB0  6E2C               	movwf	___ftmul@f2+2,c
  1121  001FB2  C062  F01B         	movff	_raw_AI0,___lwtoft@c
  1122  001FB6  C063  F01C         	movff	_raw_AI0+1,___lwtoft@c+1
  1123  001FBA  EC9C  F01A         	call	___lwtoft	;wreg free
  1124  001FBE  C01B  F027         	movff	?___lwtoft,___ftmul@f1
  1125  001FC2  C01C  F028         	movff	?___lwtoft+1,___ftmul@f1+1
  1126  001FC6  C01D  F029         	movff	?___lwtoft+2,___ftmul@f1+2
  1127  001FCA  ECEC  F014         	call	___ftmul	;wreg free
  1128  001FCE  C027  F036         	movff	?___ftmul,___ftdiv@f1
  1129  001FD2  C028  F037         	movff	?___ftmul+1,___ftdiv@f1+1
  1130  001FD6  C029  F038         	movff	?___ftmul+2,___ftdiv@f1+2
  1131  001FDA  0EC0               	movlw	192
  1132  001FDC  6E39               	movwf	___ftdiv@f2,c
  1133  001FDE  0E7F               	movlw	127
  1134  001FE0  6E3A               	movwf	___ftdiv@f2+1,c
  1135  001FE2  0E44               	movlw	68
  1136  001FE4  6E3B               	movwf	___ftdiv@f2+2,c
  1137  001FE6  ECE0  F015         	call	___ftdiv	;wreg free
  1138  001FEA  C036  F0BA         	movff	?___ftdiv,_AI0_voltage
  1139  001FEE  C037  F0BB         	movff	?___ftdiv+1,_AI0_voltage+1
  1140  001FF2  C038  F0BC         	movff	?___ftdiv+2,_AI0_voltage+2
  1141                           
  1142                           ;Hw2.c: 93: AI1_voltage = (raw_AI1 * 5.0f) / 1023.0f;
  1143  001FF6  0E00               	movlw	0
  1144  001FF8  6E2A               	movwf	___ftmul@f2,c
  1145  001FFA  0EA0               	movlw	160
  1146  001FFC  6E2B               	movwf	___ftmul@f2+1,c
  1147  001FFE  0E40               	movlw	64
  1148  002000  6E2C               	movwf	___ftmul@f2+2,c
  1149  002002  C060  F01B         	movff	_raw_AI1,___lwtoft@c
  1150  002006  C061  F01C         	movff	_raw_AI1+1,___lwtoft@c+1
  1151  00200A  EC9C  F01A         	call	___lwtoft	;wreg free
  1152  00200E  C01B  F027         	movff	?___lwtoft,___ftmul@f1
  1153  002012  C01C  F028         	movff	?___lwtoft+1,___ftmul@f1+1
  1154  002016  C01D  F029         	movff	?___lwtoft+2,___ftmul@f1+2
  1155  00201A  ECEC  F014         	call	___ftmul	;wreg free
  1156  00201E  C027  F036         	movff	?___ftmul,___ftdiv@f1
  1157  002022  C028  F037         	movff	?___ftmul+1,___ftdiv@f1+1
  1158  002026  C029  F038         	movff	?___ftmul+2,___ftdiv@f1+2
  1159  00202A  0EC0               	movlw	192
  1160  00202C  6E39               	movwf	___ftdiv@f2,c
  1161  00202E  0E7F               	movlw	127
  1162  002030  6E3A               	movwf	___ftdiv@f2+1,c
  1163  002032  0E44               	movlw	68
  1164  002034  6E3B               	movwf	___ftdiv@f2+2,c
  1165  002036  ECE0  F015         	call	___ftdiv	;wreg free
  1166  00203A  C036  F0B7         	movff	?___ftdiv,_AI1_voltage
  1167  00203E  C037  F0B8         	movff	?___ftdiv+1,_AI1_voltage+1
  1168  002042  C038  F0B9         	movff	?___ftdiv+2,_AI1_voltage+2
  1169                           
  1170                           ;Hw2.c: 94: AI2_voltage = (raw_AI2 * 5.0f) / 1023.0f;
  1171  002046  0E00               	movlw	0
  1172  002048  6E2A               	movwf	___ftmul@f2,c
  1173  00204A  0EA0               	movlw	160
  1174  00204C  6E2B               	movwf	___ftmul@f2+1,c
  1175  00204E  0E40               	movlw	64
  1176  002050  6E2C               	movwf	___ftmul@f2+2,c
  1177  002052  C05E  F01B         	movff	_raw_AI2,___lwtoft@c
  1178  002056  C05F  F01C         	movff	_raw_AI2+1,___lwtoft@c+1
  1179  00205A  EC9C  F01A         	call	___lwtoft	;wreg free
  1180  00205E  C01B  F027         	movff	?___lwtoft,___ftmul@f1
  1181  002062  C01C  F028         	movff	?___lwtoft+1,___ftmul@f1+1
  1182  002066  C01D  F029         	movff	?___lwtoft+2,___ftmul@f1+2
  1183  00206A  ECEC  F014         	call	___ftmul	;wreg free
  1184  00206E  C027  F036         	movff	?___ftmul,___ftdiv@f1
  1185  002072  C028  F037         	movff	?___ftmul+1,___ftdiv@f1+1
  1186  002076  C029  F038         	movff	?___ftmul+2,___ftdiv@f1+2
  1187  00207A  0EC0               	movlw	192
  1188  00207C  6E39               	movwf	___ftdiv@f2,c
  1189  00207E  0E7F               	movlw	127
  1190  002080  6E3A               	movwf	___ftdiv@f2+1,c
  1191  002082  0E44               	movlw	68
  1192  002084  6E3B               	movwf	___ftdiv@f2+2,c
  1193  002086  ECE0  F015         	call	___ftdiv	;wreg free
  1194  00208A  C036  F0B4         	movff	?___ftdiv,_AI2_voltage
  1195  00208E  C037  F0B5         	movff	?___ftdiv+1,_AI2_voltage+1
  1196  002092  C038  F0B6         	movff	?___ftdiv+2,_AI2_voltage+2
  1197                           
  1198                           ;Hw2.c: 96: SP = (AI0_voltage / 5.0f) * 100.0f;
  1199  002096  0E00               	movlw	0
  1200  002098  6E39               	movwf	___ftdiv@f2,c
  1201  00209A  0EA0               	movlw	160
  1202  00209C  6E3A               	movwf	___ftdiv@f2+1,c
  1203  00209E  0E40               	movlw	64
  1204  0020A0  6E3B               	movwf	___ftdiv@f2+2,c
  1205  0020A2  C0BA  F036         	movff	_AI0_voltage,___ftdiv@f1
  1206  0020A6  C0BB  F037         	movff	_AI0_voltage+1,___ftdiv@f1+1
  1207  0020AA  C0BC  F038         	movff	_AI0_voltage+2,___ftdiv@f1+2
  1208  0020AE  ECE0  F015         	call	___ftdiv	;wreg free
  1209  0020B2  C036  F027         	movff	?___ftdiv,___ftmul@f1
  1210  0020B6  C037  F028         	movff	?___ftdiv+1,___ftmul@f1+1
  1211  0020BA  C038  F029         	movff	?___ftdiv+2,___ftmul@f1+2
  1212  0020BE  0E00               	movlw	0
  1213  0020C0  6E2A               	movwf	___ftmul@f2,c
  1214  0020C2  0EC8               	movlw	200
  1215  0020C4  6E2B               	movwf	___ftmul@f2+1,c
  1216  0020C6  0E42               	movlw	66
  1217  0020C8  6E2C               	movwf	___ftmul@f2+2,c
  1218  0020CA  ECEC  F014         	call	___ftmul	;wreg free
  1219  0020CE  C027  F05B         	movff	?___ftmul,_SP
  1220  0020D2  C028  F05C         	movff	?___ftmul+1,_SP+1
  1221  0020D6  C029  F05D         	movff	?___ftmul+2,_SP+2
  1222                           
  1223                           ;Hw2.c: 97: T = AI2_voltage * 100.0f;
  1224  0020DA  C0B4  F027         	movff	_AI2_voltage,___ftmul@f1
  1225  0020DE  C0B5  F028         	movff	_AI2_voltage+1,___ftmul@f1+1
  1226  0020E2  C0B6  F029         	movff	_AI2_voltage+2,___ftmul@f1+2
  1227  0020E6  0E00               	movlw	0
  1228  0020E8  6E2A               	movwf	___ftmul@f2,c
  1229  0020EA  0EC8               	movlw	200
  1230  0020EC  6E2B               	movwf	___ftmul@f2+1,c
  1231  0020EE  0E42               	movlw	66
  1232  0020F0  6E2C               	movwf	___ftmul@f2+2,c
  1233  0020F2  ECEC  F014         	call	___ftmul	;wreg free
  1234  0020F6  C027  F058         	movff	?___ftmul,_T
  1235  0020FA  C028  F059         	movff	?___ftmul+1,_T+1
  1236  0020FE  C029  F05A         	movff	?___ftmul+2,_T+2
  1237                           
  1238                           ;Hw2.c: 98: HC = (AI1_voltage / 5.0f) * 100.0f;
  1239  002102  0E00               	movlw	0
  1240  002104  6E39               	movwf	___ftdiv@f2,c
  1241  002106  0EA0               	movlw	160
  1242  002108  6E3A               	movwf	___ftdiv@f2+1,c
  1243  00210A  0E40               	movlw	64
  1244  00210C  6E3B               	movwf	___ftdiv@f2+2,c
  1245  00210E  C0B7  F036         	movff	_AI1_voltage,___ftdiv@f1
  1246  002112  C0B8  F037         	movff	_AI1_voltage+1,___ftdiv@f1+1
  1247  002116  C0B9  F038         	movff	_AI1_voltage+2,___ftdiv@f1+2
  1248  00211A  ECE0  F015         	call	___ftdiv	;wreg free
  1249  00211E  C036  F027         	movff	?___ftdiv,___ftmul@f1
  1250  002122  C037  F028         	movff	?___ftdiv+1,___ftmul@f1+1
  1251  002126  C038  F029         	movff	?___ftdiv+2,___ftmul@f1+2
  1252  00212A  0E00               	movlw	0
  1253  00212C  6E2A               	movwf	___ftmul@f2,c
  1254  00212E  0EC8               	movlw	200
  1255  002130  6E2B               	movwf	___ftmul@f2+1,c
  1256  002132  0E42               	movlw	66
  1257  002134  6E2C               	movwf	___ftmul@f2+2,c
  1258  002136  ECEC  F014         	call	___ftmul	;wreg free
  1259  00213A  C027  F0BD         	movff	?___ftmul,_HC
  1260  00213E  C028  F0BE         	movff	?___ftmul+1,_HC+1
  1261  002142  C029  F0BF         	movff	?___ftmul+2,_HC+2
  1262                           
  1263                           ;Hw2.c: 104: if (mode_change_flag)
  1264  002146  5068               	movf	_mode_change_flag,w,c	;volatile
  1265  002148  B4D8               	btfsc	status,2,c
  1266  00214A  D017               	goto	l135
  1267                           
  1268                           ;Hw2.c: 105: {
  1269                           ;Hw2.c: 106: mode_change_flag = 0;
  1270  00214C  0E00               	movlw	0
  1271  00214E  6E68               	movwf	_mode_change_flag,c	;volatile
  1272                           
  1273                           ;Hw2.c: 107: delay_ms(30);
  1274  002150  0E00               	movlw	0
  1275  002152  6E14               	movwf	delay_ms@n+1,c
  1276  002154  0E1E               	movlw	30
  1277  002156  6E13               	movwf	delay_ms@n,c
  1278  002158  EC76  F01A         	call	_delay_ms	;wreg free
  1279                           
  1280                           ;Hw2.c: 109: if (!PORTBbits.RB0)
  1281  00215C  B081               	btfsc	3969,0,c	;volatile
  1282  00215E  D00D               	goto	l135
  1283                           
  1284                           ;Hw2.c: 110: {
  1285                           ;Hw2.c: 111: currentMode = (currentMode + 1) & 0x03;
  1286  002160  286A               	incf	_currentMode,w,c	;volatile
  1287  002162  0B03               	andlw	3
  1288  002164  6E6A               	movwf	_currentMode,c	;volatile
  1289                           
  1290                           ;Hw2.c: 112: while (!PORTBbits.RB0) asm(" clrwdt");
  1291  002166  D001               	goto	l136
  1292  002168                     l137:
  1293  002168  0004               	clrwdt		;# 
  1294  00216A                     l136:
  1295  00216A  A081               	btfss	3969,0,c	;volatile
  1296  00216C  D7FD               	goto	l137
  1297                           
  1298                           ;Hw2.c: 113: delay_ms(50);
  1299  00216E  0E00               	movlw	0
  1300  002170  6E14               	movwf	delay_ms@n+1,c
  1301  002172  0E32               	movlw	50
  1302  002174  6E13               	movwf	delay_ms@n,c
  1303  002176  EC76  F01A         	call	_delay_ms	;wreg free
  1304  00217A                     l135:
  1305                           
  1306                           ;Hw2.c: 114: }
  1307                           ;Hw2.c: 115: }
  1308                           ;Hw2.c: 117: if (hs_change_flag)
  1309  00217A  5067               	movf	_hs_change_flag,w,c	;volatile
  1310  00217C  B4D8               	btfsc	status,2,c
  1311  00217E  D017               	goto	l140
  1312                           
  1313                           ;Hw2.c: 118: {
  1314                           ;Hw2.c: 119: hs_change_flag = 0;
  1315  002180  0E00               	movlw	0
  1316  002182  6E67               	movwf	_hs_change_flag,c	;volatile
  1317                           
  1318                           ;Hw2.c: 120: delay_ms(30);
  1319  002184  0E00               	movlw	0
  1320  002186  6E14               	movwf	delay_ms@n+1,c
  1321  002188  0E1E               	movlw	30
  1322  00218A  6E13               	movwf	delay_ms@n,c
  1323  00218C  EC76  F01A         	call	_delay_ms	;wreg free
  1324                           
  1325                           ;Hw2.c: 122: if (!PORTBbits.RB1)
  1326  002190  B281               	btfsc	3969,1,c	;volatile
  1327  002192  D00D               	goto	l140
  1328                           
  1329                           ;Hw2.c: 123: {
  1330                           ;Hw2.c: 124: Hs = (Hs + 1) & 0x03;
  1331  002194  2869               	incf	_Hs,w,c	;volatile
  1332  002196  0B03               	andlw	3
  1333  002198  6E69               	movwf	_Hs,c	;volatile
  1334                           
  1335                           ;Hw2.c: 125: while (!PORTBbits.RB1) asm(" clrwdt");
  1336  00219A  D001               	goto	l141
  1337  00219C                     l142:
  1338  00219C  0004               	clrwdt		;# 
  1339  00219E                     l141:
  1340  00219E  A281               	btfss	3969,1,c	;volatile
  1341  0021A0  D7FD               	goto	l142
  1342                           
  1343                           ;Hw2.c: 126: delay_ms(50);
  1344  0021A2  0E00               	movlw	0
  1345  0021A4  6E14               	movwf	delay_ms@n+1,c
  1346  0021A6  0E32               	movlw	50
  1347  0021A8  6E13               	movwf	delay_ms@n,c
  1348  0021AA  EC76  F01A         	call	_delay_ms	;wreg free
  1349  0021AE                     l140:
  1350                           
  1351                           ;Hw2.c: 127: }
  1352                           ;Hw2.c: 128: }
  1353                           ;Hw2.c: 130: if (off_flag)
  1354  0021AE  5066               	movf	_off_flag,w,c	;volatile
  1355  0021B0  B4D8               	btfsc	status,2,c
  1356  0021B2  D016               	goto	l145
  1357                           
  1358                           ;Hw2.c: 131: {
  1359                           ;Hw2.c: 132: off_flag = 0;
  1360  0021B4  0E00               	movlw	0
  1361  0021B6  6E66               	movwf	_off_flag,c	;volatile
  1362                           
  1363                           ;Hw2.c: 133: delay_ms(30);
  1364  0021B8  0E00               	movlw	0
  1365  0021BA  6E14               	movwf	delay_ms@n+1,c
  1366  0021BC  0E1E               	movlw	30
  1367  0021BE  6E13               	movwf	delay_ms@n,c
  1368  0021C0  EC76  F01A         	call	_delay_ms	;wreg free
  1369                           
  1370                           ;Hw2.c: 135: if (!PORTBbits.RB2)
  1371  0021C4  B481               	btfsc	3969,2,c	;volatile
  1372  0021C6  D00C               	goto	l145
  1373                           
  1374                           ;Hw2.c: 136: {
  1375                           ;Hw2.c: 137: currentMode = MODE_OFF;
  1376  0021C8  0E00               	movlw	0
  1377  0021CA  6E6A               	movwf	_currentMode,c	;volatile
  1378                           
  1379                           ;Hw2.c: 138: while (!PORTBbits.RB2) asm(" clrwdt");
  1380  0021CC  D001               	goto	l146
  1381  0021CE                     l147:
  1382  0021CE  0004               	clrwdt		;# 
  1383  0021D0                     l146:
  1384  0021D0  A481               	btfss	3969,2,c	;volatile
  1385  0021D2  D7FD               	goto	l147
  1386                           
  1387                           ;Hw2.c: 139: delay_ms(50);
  1388  0021D4  0E00               	movlw	0
  1389  0021D6  6E14               	movwf	delay_ms@n+1,c
  1390  0021D8  0E32               	movlw	50
  1391  0021DA  6E13               	movwf	delay_ms@n,c
  1392  0021DC  EC76  F01A         	call	_delay_ms	;wreg free
  1393  0021E0                     l145:
  1394                           
  1395                           ;Hw2.c: 140: }
  1396                           ;Hw2.c: 141: }
  1397                           ;Hw2.c: 147: printingOnLCD();
  1398  0021E0  EC16  F013         	call	_printingOnLCD	;wreg free
  1399                           
  1400                           ;Hw2.c: 153: switch (currentMode)
  1401  0021E4  D00F               	goto	l149
  1402  0021E6  EC13  F01B         	call	_OffMode	;wreg free
  1403  0021EA  D01A               	goto	l151
  1404  0021EC  EC02  F01A         	call	_HeatMode	;wreg free
  1405  0021F0  D017               	goto	l151
  1406  0021F2  EC89  F01A         	call	_CoolMode	;wreg free
  1407  0021F6  D014               	goto	l151
  1408  0021F8  ECB9  F016         	call	_AutoCoolMode	;wreg free
  1409  0021FC  D011               	goto	l151
  1410  0021FE  EC13  F01B         	call	_OffMode	;wreg free
  1411                           
  1412                           ;Hw2.c: 160: }
  1413  002202  D00E               	goto	l151
  1414  002204                     l149:
  1415  002204  506A               	movf	_currentMode,w,c	;volatile
  1416                           
  1417                           ; Switch size 1, requested type "space"
  1418                           ; Number of cases is 4, Range of values is 0 to 3
  1419                           ; switch strategies available:
  1420                           ; Name         Instructions Cycles
  1421                           ; simple_byte           13     7 (average)
  1422                           ;	Chosen strategy is simple_byte
  1423  002206  0A00               	xorlw	0	; case 0
  1424  002208  B4D8               	btfsc	status,2,c
  1425  00220A  D7ED               	goto	l150
  1426  00220C  0A01               	xorlw	1	; case 1
  1427  00220E  B4D8               	btfsc	status,2,c
  1428  002210  D7ED               	goto	l152
  1429  002212  0A03               	xorlw	3	; case 2
  1430  002214  B4D8               	btfsc	status,2,c
  1431  002216  D7ED               	goto	l153
  1432  002218  0A01               	xorlw	1	; case 3
  1433  00221A  B4D8               	btfsc	status,2,c
  1434  00221C  D7ED               	goto	l154
  1435  00221E  D7EF               	goto	l155
  1436  002220                     l151:
  1437                           
  1438                           ;Hw2.c: 162: delay_ms(50);
  1439  002220  0E00               	movlw	0
  1440  002222  6E14               	movwf	delay_ms@n+1,c
  1441  002224  0E32               	movlw	50
  1442  002226  6E13               	movwf	delay_ms@n,c
  1443  002228  EC76  F01A         	call	_delay_ms	;wreg free
  1444  00222C  D6A6               	goto	l133
  1445  00222E                     __end_of_main:
  1446                           	opt stack 0
  1447                           tblptru	equ	0xFF8
  1448                           tblptrh	equ	0xFF7
  1449                           tblptrl	equ	0xFF6
  1450                           tablat	equ	0xFF5
  1451                           postinc0	equ	0xFEE
  1452                           wreg	equ	0xFE8
  1453                           postdec1	equ	0xFE5
  1454                           fsr1l	equ	0xFE1
  1455                           status	equ	0xFD8
  1456                           
  1457 ;; *************** function _setupInterrupts *****************
  1458 ;; Defined at:
  1459 ;;		line 190 in file "Hw2.c"
  1460 ;; Parameters:    Size  Location     Type
  1461 ;;		None
  1462 ;; Auto vars:     Size  Location     Type
  1463 ;;		None
  1464 ;; Return value:  Size  Location     Type
  1465 ;;                  1    wreg      void 
  1466 ;; Registers used:
  1467 ;;		None
  1468 ;; Tracked objects:
  1469 ;;		On entry : 0/0
  1470 ;;		On exit  : 0/0
  1471 ;;		Unchanged: 0/0
  1472 ;; Data sizes:     COMRAM   BANK0   BANK1   BANK2   BANK3   BANK4   BANK5   BANK6   BANK7   BANK8   BANK9  BANK10  BANK1
      +1  BANK12  BANK13  BANK14  BANK15
  1473 ;;      Params:         0       0       0       0       0       0       0       0       0       0       0       0       
      +0       0       0       0       0
  1474 ;;      Locals:         0       0       0       0       0       0       0       0       0       0       0       0       
      +0       0       0       0       0
  1475 ;;      Temps:          0       0       0       0       0       0       0       0       0       0       0       0       
      +0       0       0       0       0
  1476 ;;      Totals:         0       0       0       0       0       0       0       0       0       0       0       0       
      +0       0       0       0       0
  1477 ;;Total ram usage:        0 bytes
  1478 ;; Hardware stack levels used:    1
  1479 ;; Hardware stack levels required when called:    1
  1480 ;; This function calls:
  1481 ;;		Nothing
  1482 ;; This function is called by:
  1483 ;;		_main
  1484 ;; This function uses a non-reentrant model
  1485 ;;
  1486                           
  1487                           	psect	text1
  1488  0035A4                     __ptext1:
  1489                           	opt stack 0
  1490  0035A4                     _setupInterrupts:
  1491                           	opt stack 29
  1492                           
  1493                           ;Hw2.c: 192: RCONbits.IPEN = 0;
  1494                           
  1495                           ;incstack = 0
  1496  0035A4  9ED0               	bcf	4048,7,c	;volatile
  1497                           
  1498                           ;Hw2.c: 195: INTCON2bits.INTEDG0 = 0;
  1499  0035A6  9CF1               	bcf	intcon2,6,c	;volatile
  1500                           
  1501                           ;Hw2.c: 196: INTCONbits.INT0IF = 0;
  1502  0035A8  92F2               	bcf	intcon,1,c	;volatile
  1503                           
  1504                           ;Hw2.c: 197: INTCONbits.INT0IE = 1;
  1505  0035AA  88F2               	bsf	intcon,4,c	;volatile
  1506                           
  1507                           ;Hw2.c: 200: INTCON2bits.INTEDG1 = 0;
  1508  0035AC  9AF1               	bcf	intcon2,5,c	;volatile
  1509                           
  1510                           ;Hw2.c: 201: INTCON3bits.INT1IF = 0;
  1511  0035AE  90F0               	bcf	intcon3,0,c	;volatile
  1512                           
  1513                           ;Hw2.c: 202: INTCON3bits.INT1IE = 1;
  1514  0035B0  86F0               	bsf	intcon3,3,c	;volatile
  1515                           
  1516                           ;Hw2.c: 205: INTCON2bits.INTEDG2 = 0;
  1517  0035B2  98F1               	bcf	intcon2,4,c	;volatile
  1518                           
  1519                           ;Hw2.c: 206: INTCON3bits.INT2IF = 0;
  1520  0035B4  92F0               	bcf	intcon3,1,c	;volatile
  1521                           
  1522                           ;Hw2.c: 207: INTCON3bits.INT2IE = 1;
  1523  0035B6  88F0               	bsf	intcon3,4,c	;volatile
  1524                           
  1525                           ;Hw2.c: 210: PIE1bits.TMR1IE = 0;
  1526  0035B8  909D               	bcf	3997,0,c	;volatile
  1527                           
  1528                           ;Hw2.c: 211: PIR1bits.TMR1IF = 0;
  1529  0035BA  909E               	bcf	3998,0,c	;volatile
  1530                           
  1531                           ;Hw2.c: 213: PIE2bits.CCP2IE = 0;
  1532  0035BC  90A0               	bcf	4000,0,c	;volatile
  1533                           
  1534                           ;Hw2.c: 214: PIR2bits.CCP2IF = 0;
  1535  0035BE  90A1               	bcf	4001,0,c	;volatile
  1536                           
  1537                           ;Hw2.c: 216: INTCONbits.PEIE = 1;
  1538  0035C0  8CF2               	bsf	intcon,6,c	;volatile
  1539                           
  1540                           ;Hw2.c: 217: INTCONbits.GIE = 1;
  1541  0035C2  8EF2               	bsf	intcon,7,c	;volatile
  1542  0035C4  0012               	return		;funcret
  1543  0035C6                     __end_of_setupInterrupts:
  1544                           	opt stack 0
  1545                           tblptru	equ	0xFF8
  1546                           tblptrh	equ	0xFF7
  1547                           tblptrl	equ	0xFF6
  1548                           tablat	equ	0xFF5
  1549                           intcon	equ	0xFF2
  1550                           intcon2	equ	0xFF1
  1551                           intcon3	equ	0xFF0
  1552                           postinc0	equ	0xFEE
  1553                           wreg	equ	0xFE8
  1554                           postdec1	equ	0xFE5
  1555                           fsr1l	equ	0xFE1
  1556                           status	equ	0xFD8
  1557                           
  1558 ;; *************** function _setupCompare *****************
  1559 ;; Defined at:
  1560 ;;		line 224 in file "Hw2.c"
  1561 ;; Parameters:    Size  Location     Type
  1562 ;;		None
  1563 ;; Auto vars:     Size  Location     Type
  1564 ;;		None
  1565 ;; Return value:  Size  Location     Type
  1566 ;;                  1    wreg      void 
  1567 ;; Registers used:
  1568 ;;		wreg, status,2
  1569 ;; Tracked objects:
  1570 ;;		On entry : 0/0
  1571 ;;		On exit  : 0/0
  1572 ;;		Unchanged: 0/0
  1573 ;; Data sizes:     COMRAM   BANK0   BANK1   BANK2   BANK3   BANK4   BANK5   BANK6   BANK7   BANK8   BANK9  BANK10  BANK1
      +1  BANK12  BANK13  BANK14  BANK15
  1574 ;;      Params:         0       0       0       0       0       0       0       0       0       0       0       0       
      +0       0       0       0       0
  1575 ;;      Locals:         0       0       0       0       0       0       0       0       0       0       0       0       
      +0       0       0       0       0
  1576 ;;      Temps:          0       0       0       0       0       0       0       0       0       0       0       0       
      +0       0       0       0       0
  1577 ;;      Totals:         0       0       0       0       0       0       0       0       0       0       0       0       
      +0       0       0       0       0
  1578 ;;Total ram usage:        0 bytes
  1579 ;; Hardware stack levels used:    1
  1580 ;; Hardware stack levels required when called:    1
  1581 ;; This function calls:
  1582 ;;		Nothing
  1583 ;; This function is called by:
  1584 ;;		_main
  1585 ;; This function uses a non-reentrant model
  1586 ;;
  1587                           
  1588                           	psect	text2
  1589  0035E8                     __ptext2:
  1590                           	opt stack 0
  1591  0035E8                     _setupCompare:
  1592                           	opt stack 29
  1593                           
  1594                           ;Hw2.c: 226: CCP2CON = 0x09;
  1595                           
  1596                           ;incstack = 0
  1597  0035E8  0E09               	movlw	9
  1598  0035EA  6EBA               	movwf	4026,c	;volatile
  1599                           
  1600                           ;Hw2.c: 227: T1CON = 0x00;
  1601  0035EC  0E00               	movlw	0
  1602  0035EE  6ECD               	movwf	4045,c	;volatile
  1603                           
  1604                           ;Hw2.c: 228: T1CONbits.TMR1CS = 0;
  1605  0035F0  92CD               	bcf	4045,1,c	;volatile
  1606                           
  1607                           ;Hw2.c: 229: T1CONbits.T1CKPS = 0b10;
  1608  0035F2  50CD               	movf	4045,w,c	;volatile
  1609  0035F4  0BCF               	andlw	-49
  1610  0035F6  0920               	iorlw	32
  1611  0035F8  6ECD               	movwf	4045,c	;volatile
  1612                           
  1613                           ;Hw2.c: 230: T1CONbits.RD16 = 1;
  1614  0035FA  8ECD               	bsf	4045,7,c	;volatile
  1615                           
  1616                           ;Hw2.c: 232: TMR1 = 0;
  1617  0035FC  0E00               	movlw	0
  1618  0035FE  6ECF               	movwf	4047,c	;volatile
  1619  003600  0E00               	movlw	0
  1620  003602  6ECE               	movwf	4046,c	;volatile
  1621                           
  1622                           ;Hw2.c: 233: T1CONbits.TMR1ON = 1;
  1623  003604  80CD               	bsf	4045,0,c	;volatile
  1624  003606  0012               	return		;funcret
  1625  003608                     __end_of_setupCompare:
  1626                           	opt stack 0
  1627                           tblptru	equ	0xFF8
  1628                           tblptrh	equ	0xFF7
  1629                           tblptrl	equ	0xFF6
  1630                           tablat	equ	0xFF5
  1631                           intcon	equ	0xFF2
  1632                           intcon2	equ	0xFF1
  1633                           intcon3	equ	0xFF0
  1634                           postinc0	equ	0xFEE
  1635                           wreg	equ	0xFE8
  1636                           postdec1	equ	0xFE5
  1637                           fsr1l	equ	0xFE1
  1638                           status	equ	0xFD8
  1639                           
  1640 ;; *************** function _read_adc_raw_no_lib *****************
  1641 ;; Defined at:
  1642 ;;		line 18 in file "my_adc.c"
  1643 ;; Parameters:    Size  Location     Type
  1644 ;;  channel         1    wreg     unsigned char 
  1645 ;; Auto vars:     Size  Location     Type
  1646 ;;  channel         1   24[COMRAM] unsigned char 
  1647 ;;  raw_value       2   22[COMRAM] int 
  1648 ;; Return value:  Size  Location     Type
  1649 ;;                  2   18[COMRAM] int 
  1650 ;; Registers used:
  1651 ;;		wreg, status,2, status,0
  1652 ;; Tracked objects:
  1653 ;;		On entry : 0/0
  1654 ;;		On exit  : 0/0
  1655 ;;		Unchanged: 0/0
  1656 ;; Data sizes:     COMRAM   BANK0   BANK1   BANK2   BANK3   BANK4   BANK5   BANK6   BANK7   BANK8   BANK9  BANK10  BANK1
      +1  BANK12  BANK13  BANK14  BANK15
  1657 ;;      Params:         2       0       0       0       0       0       0       0       0       0       0       0       
      +0       0       0       0       0
  1658 ;;      Locals:         3       0       0       0       0       0       0       0       0       0       0       0       
      +0       0       0       0       0
  1659 ;;      Temps:          2       0       0       0       0       0       0       0       0       0       0       0       
      +0       0       0       0       0
  1660 ;;      Totals:         7       0       0       0       0       0       0       0       0       0       0       0       
      +0       0       0       0       0
  1661 ;;Total ram usage:        7 bytes
  1662 ;; Hardware stack levels used:    1
  1663 ;; Hardware stack levels required when called:    1
  1664 ;; This function calls:
  1665 ;;		Nothing
  1666 ;; This function is called by:
  1667 ;;		_main
  1668 ;;		_read_adc_voltage
  1669 ;; This function uses a non-reentrant model
  1670 ;;
  1671                           
  1672                           	psect	text3
  1673  0033CA                     __ptext3:
  1674                           	opt stack 0
  1675  0033CA                     _read_adc_raw_no_lib:
  1676                           	opt stack 29
  1677                           
  1678                           ;incstack = 0
  1679                           ;read_adc_raw_no_lib@channel stored from wreg
  1680  0033CA  6E19               	movwf	read_adc_raw_no_lib@channel,c
  1681                           
  1682                           ;my_adc.c: 19: int raw_value;
  1683                           ;my_adc.c: 20: ADCON0bits.CHS = channel;
  1684  0033CC  C019  F015         	movff	read_adc_raw_no_lib@channel,??_read_adc_raw_no_lib
  1685  0033D0  4615               	rlncf	??_read_adc_raw_no_lib,f,c
  1686  0033D2  4615               	rlncf	??_read_adc_raw_no_lib,f,c
  1687  0033D4  50C2               	movf	4034,w,c	;volatile
  1688  0033D6  1815               	xorwf	??_read_adc_raw_no_lib,w,c
  1689  0033D8  0BC3               	andlw	-61
  1690  0033DA  1815               	xorwf	??_read_adc_raw_no_lib,w,c
  1691  0033DC  6EC2               	movwf	4034,c	;volatile
  1692                           
  1693                           ;my_adc.c: 23: ADCON0bits.GO = 1;
  1694  0033DE  82C2               	bsf	4034,1,c	;volatile
  1695  0033E0  B2C2               	btfsc	4034,1,c	;volatile
  1696  0033E2  D7FE               	goto	l324
  1697                           
  1698                           ;my_adc.c: 27: raw_value = ADRESH << 8 | ADRESL;
  1699  0033E4  50C3               	movf	4035,w,c	;volatile
  1700  0033E6  CFC4 F015          	movff	4036,??_read_adc_raw_no_lib	;volatile
  1701  0033EA  6A16               	clrf	(??_read_adc_raw_no_lib+1)& (0+255),c
  1702  0033EC  C015  F016         	movff	??_read_adc_raw_no_lib,??_read_adc_raw_no_lib+1
  1703  0033F0  6A15               	clrf	??_read_adc_raw_no_lib,c
  1704  0033F2  1015               	iorwf	??_read_adc_raw_no_lib,w,c
  1705  0033F4  6E17               	movwf	read_adc_raw_no_lib@raw_value,c
  1706  0033F6  5016               	movf	??_read_adc_raw_no_lib+1,w,c
  1707  0033F8  6E18               	movwf	read_adc_raw_no_lib@raw_value+1,c
  1708                           
  1709                           ;my_adc.c: 31: return raw_value;
  1710  0033FA  C017  F013         	movff	read_adc_raw_no_lib@raw_value,?_read_adc_raw_no_lib
  1711  0033FE  C018  F014         	movff	read_adc_raw_no_lib@raw_value+1,?_read_adc_raw_no_lib+1
  1712  003402  0012               	return	
  1713  003404                     __end_of_read_adc_raw_no_lib:
  1714                           	opt stack 0
  1715                           tblptru	equ	0xFF8
  1716                           tblptrh	equ	0xFF7
  1717                           tblptrl	equ	0xFF6
  1718                           tablat	equ	0xFF5
  1719                           intcon	equ	0xFF2
  1720                           intcon2	equ	0xFF1
  1721                           intcon3	equ	0xFF0
  1722                           postinc0	equ	0xFEE
  1723                           wreg	equ	0xFE8
  1724                           postdec1	equ	0xFE5
  1725                           fsr1l	equ	0xFE1
  1726                           status	equ	0xFD8
  1727                           
  1728 ;; *************** function _printingOnLCD *****************
  1729 ;; Defined at:
  1730 ;;		line 354 in file "Hw2.c"
  1731 ;; Parameters:    Size  Location     Type
  1732 ;;		None
  1733 ;; Auto vars:     Size  Location     Type
  1734 ;;  c               1   47[BANK0 ] unsigned char 
  1735 ;;  h               1   46[BANK0 ] unsigned char 
  1736 ;; Return value:  Size  Location     Type
  1737 ;;                  1    wreg      void 
  1738 ;; Registers used:
  1739 ;;		wreg, fsr0l, fsr0h, fsr1l, fsr1h, fsr2l, fsr2h, status,2, status,0, tblptrl, tblptrh, tblptru, prodl, prodh, cstack
  1740 ;; Tracked objects:
  1741 ;;		On entry : 0/0
  1742 ;;		On exit  : 0/0
  1743 ;;		Unchanged: 0/0
  1744 ;; Data sizes:     COMRAM   BANK0   BANK1   BANK2   BANK3   BANK4   BANK5   BANK6   BANK7   BANK8   BANK9  BANK10  BANK1
      +1  BANK12  BANK13  BANK14  BANK15
  1745 ;;      Params:         0       0       0       0       0       0       0       0       0       0       0       0       
      +0       0       0       0       0
  1746 ;;      Locals:         0       6       0       0       0       0       0       0       0       0       0       0       
      +0       0       0       0       0
  1747 ;;      Temps:          0       0       0       0       0       0       0       0       0       0       0       0       
      +0       0       0       0       0
  1748 ;;      Totals:         0       6       0       0       0       0       0       0       0       0       0       0       
      +0       0       0       0       0
  1749 ;;Total ram usage:        6 bytes
  1750 ;; Hardware stack levels used:    1
  1751 ;; Hardware stack levels required when called:    7
  1752 ;; This function calls:
  1753 ;;		_lcd_gotoxy
  1754 ;;		_lcd_puts
  1755 ;;		_sprintf
  1756 ;; This function is called by:
  1757 ;;		_main
  1758 ;; This function uses a non-reentrant model
  1759 ;;
  1760                           
  1761                           	psect	text4
  1762  00262C                     __ptext4:
  1763                           	opt stack 0
  1764  00262C                     _printingOnLCD:
  1765                           	opt stack 23
  1766                           
  1767                           ;Hw2.c: 356: char h = heaterOn ? 'Y' : 'N';
  1768                           
  1769                           ;incstack = 0
  1770  00262C  5065               	movf	_heaterOn,w,c
  1771  00262E  A4D8               	btfss	status,2,c
  1772  002630  D005               	goto	l197
  1773  002632  0E00               	movlw	0
  1774  002634  0100               	movlb	0	; () banked
  1775  002636  6FB1               	movwf	(_printingOnLCD$796+1)& (0+255),b
  1776  002638  0E4E               	movlw	78
  1777  00263A  D004               	goto	L1
  1778  00263C                     l197:
  1779                           
  1780                           ; BSR set to: 0
  1781  00263C  0E00               	movlw	0
  1782  00263E  0100               	movlb	0	; () banked
  1783  002640  6FB1               	movwf	(_printingOnLCD$796+1)& (0+255),b
  1784  002642  0E59               	movlw	89
  1785  002644                     L1:
  1786  002644  6FB0               	movwf	_printingOnLCD$796& (0+255),b
  1787                           
  1788                           ; BSR set to: 0
  1789                           
  1790                           ; BSR set to: 0
  1791  002646  C0B0  F0AE         	movff	_printingOnLCD$796,printingOnLCD@h
  1792                           
  1793                           ;Hw2.c: 357: char c = coolerOn ? 'Y' : 'N';
  1794  00264A  5064               	movf	_coolerOn,w,c
  1795  00264C  A4D8               	btfss	status,2,c
  1796  00264E  D004               	goto	l201
  1797                           
  1798                           ; BSR set to: 0
  1799  002650  0E00               	movlw	0
  1800  002652  6FB3               	movwf	(_printingOnLCD$798+1)& (0+255),b
  1801  002654  0E4E               	movlw	78
  1802  002656  D003               	goto	L2
  1803  002658                     l201:
  1804                           
  1805                           ; BSR set to: 0
  1806                           
  1807                           ; BSR set to: 0
  1808  002658  0E00               	movlw	0
  1809  00265A  6FB3               	movwf	(_printingOnLCD$798+1)& (0+255),b
  1810  00265C  0E59               	movlw	89
  1811  00265E                     L2:
  1812  00265E  6FB2               	movwf	_printingOnLCD$798& (0+255),b
  1813                           
  1814                           ; BSR set to: 0
  1815                           
  1816                           ; BSR set to: 0
  1817  002660  C0B2  F0AF         	movff	_printingOnLCD$798,printingOnLCD@c
  1818                           
  1819                           ; BSR set to: 0
  1820                           ;Hw2.c: 359: lcd_gotoxy(1,1);
  1821  002664  0E01               	movlw	1
  1822  002666  6E1D               	movwf	lcd_gotoxy@y,c
  1823  002668  0E01               	movlw	1
  1824  00266A  ECA4  F019         	call	_lcd_gotoxy
  1825                           
  1826                           ;Hw2.c: 360: sprintf(Buffer, "RT:%4.1fC   H C", T);
  1827  00266E  0EC0               	movlw	low _Buffer
  1828  002670  0100               	movlb	0	; () banked
  1829  002672  6F80               	movwf	sprintf@sp& (0+255),b
  1830  002674  0E00               	movlw	high _Buffer
  1831  002676  6F81               	movwf	(sprintf@sp+1)& (0+255),b
  1832  002678  0E9B               	movlw	low STR_1
  1833  00267A  6F82               	movwf	sprintf@f& (0+255),b
  1834  00267C  0E10               	movlw	high STR_1
  1835  00267E  6F83               	movwf	(sprintf@f+1)& (0+255),b
  1836  002680  C058  F084         	movff	_T,?_sprintf+4
  1837  002684  C059  F085         	movff	_T+1,?_sprintf+5
  1838  002688  C05A  F086         	movff	_T+2,?_sprintf+6
  1839  00268C  EC74  F008         	call	_sprintf	;wreg free
  1840                           
  1841                           ;Hw2.c: 361: lcd_puts(Buffer);
  1842  002690  0EC0               	movlw	low _Buffer
  1843  002692  6E21               	movwf	lcd_puts@s,c
  1844  002694  0E00               	movlw	high _Buffer
  1845  002696  6E22               	movwf	lcd_puts@s+1,c
  1846  002698  EC07  F019         	call	_lcd_puts	;wreg free
  1847                           
  1848                           ;Hw2.c: 363: lcd_gotoxy(1,2);
  1849  00269C  0E02               	movlw	2
  1850  00269E  6E1D               	movwf	lcd_gotoxy@y,c
  1851  0026A0  0E01               	movlw	1
  1852  0026A2  ECA4  F019         	call	_lcd_gotoxy
  1853                           
  1854                           ;Hw2.c: 364: sprintf(Buffer, "SP:%4.1fC   %c %c", SP, h, c);
  1855  0026A6  0EC0               	movlw	low _Buffer
  1856  0026A8  0100               	movlb	0	; () banked
  1857  0026AA  6F80               	movwf	sprintf@sp& (0+255),b
  1858  0026AC  0E00               	movlw	high _Buffer
  1859  0026AE  6F81               	movwf	(sprintf@sp+1)& (0+255),b
  1860  0026B0  0E89               	movlw	low STR_2
  1861  0026B2  6F82               	movwf	sprintf@f& (0+255),b
  1862  0026B4  0E10               	movlw	high STR_2
  1863  0026B6  6F83               	movwf	(sprintf@f+1)& (0+255),b
  1864  0026B8  C05B  F084         	movff	_SP,?_sprintf+4
  1865  0026BC  C05C  F085         	movff	_SP+1,?_sprintf+5
  1866  0026C0  C05D  F086         	movff	_SP+2,?_sprintf+6
  1867  0026C4  C0AE  F087         	movff	printingOnLCD@h,?_sprintf+7
  1868  0026C8  6B88               	clrf	(?_sprintf+8)& (0+255),b
  1869  0026CA  C0AF  F089         	movff	printingOnLCD@c,?_sprintf+9
  1870  0026CE  6B8A               	clrf	(?_sprintf+10)& (0+255),b
  1871  0026D0  EC74  F008         	call	_sprintf	;wreg free
  1872                           
  1873                           ;Hw2.c: 365: lcd_puts(Buffer);
  1874  0026D4  0EC0               	movlw	low _Buffer
  1875  0026D6  6E21               	movwf	lcd_puts@s,c
  1876  0026D8  0E00               	movlw	high _Buffer
  1877  0026DA  6E22               	movwf	lcd_puts@s+1,c
  1878  0026DC  EC07  F019         	call	_lcd_puts	;wreg free
  1879                           
  1880                           ;Hw2.c: 367: lcd_gotoxy(1,3);
  1881  0026E0  0E03               	movlw	3
  1882  0026E2  6E1D               	movwf	lcd_gotoxy@y,c
  1883  0026E4  0E01               	movlw	1
  1884  0026E6  ECA4  F019         	call	_lcd_gotoxy
  1885                           
  1886                           ;Hw2.c: 368: sprintf(Buffer, "HS:%d  HC:%4.1f%%", Hs, HC);
  1887  0026EA  0EC0               	movlw	low _Buffer
  1888  0026EC  0100               	movlb	0	; () banked
  1889  0026EE  6F80               	movwf	sprintf@sp& (0+255),b
  1890  0026F0  0E00               	movlw	high _Buffer
  1891  0026F2  6F81               	movwf	(sprintf@sp+1)& (0+255),b
  1892  0026F4  0E77               	movlw	low STR_3
  1893  0026F6  6F82               	movwf	sprintf@f& (0+255),b
  1894  0026F8  0E10               	movlw	high STR_3
  1895  0026FA  6F83               	movwf	(sprintf@f+1)& (0+255),b
  1896  0026FC  C069  F084         	movff	_Hs,?_sprintf+4	;volatile
  1897  002700  6B85               	clrf	(?_sprintf+5)& (0+255),b
  1898  002702  C0BD  F086         	movff	_HC,?_sprintf+6
  1899  002706  C0BE  F087         	movff	_HC+1,?_sprintf+7
  1900  00270A  C0BF  F088         	movff	_HC+2,?_sprintf+8
  1901  00270E  EC74  F008         	call	_sprintf	;wreg free
  1902                           
  1903                           ;Hw2.c: 369: lcd_puts(Buffer);
  1904  002712  0EC0               	movlw	low _Buffer
  1905  002714  6E21               	movwf	lcd_puts@s,c
  1906  002716  0E00               	movlw	high _Buffer
  1907  002718  6E22               	movwf	lcd_puts@s+1,c
  1908  00271A  EC07  F019         	call	_lcd_puts	;wreg free
  1909                           
  1910                           ;Hw2.c: 371: lcd_gotoxy(1,4);
  1911  00271E  0E04               	movlw	4
  1912  002720  6E1D               	movwf	lcd_gotoxy@y,c
  1913  002722  0E01               	movlw	1
  1914  002724  ECA4  F019         	call	_lcd_gotoxy
  1915                           
  1916                           ;Hw2.c: 372: switch (currentMode)
  1917  002728  D01C               	goto	l204
  1918  00272A  0EAB               	movlw	low STR_4
  1919  00272C  6E21               	movwf	lcd_puts@s,c
  1920  00272E  0E10               	movlw	high STR_4
  1921  002730  6E22               	movwf	lcd_puts@s+1,c
  1922  002732  EC07  F019         	call	_lcd_puts	;wreg free
  1923  002736  0012               	return	
  1924  002738  0EC9               	movlw	low STR_5
  1925  00273A  6E21               	movwf	lcd_puts@s,c
  1926  00273C  0E10               	movlw	high STR_5
  1927  00273E  6E22               	movwf	lcd_puts@s+1,c
  1928  002740  EC07  F019         	call	_lcd_puts	;wreg free
  1929  002744  0012               	return	
  1930  002746  0EBA               	movlw	low STR_6
  1931  002748  6E21               	movwf	lcd_puts@s,c
  1932  00274A  0E10               	movlw	high STR_6
  1933  00274C  6E22               	movwf	lcd_puts@s+1,c
  1934  00274E  EC07  F019         	call	_lcd_puts	;wreg free
  1935  002752  0012               	return	
  1936  002754  0ED8               	movlw	low STR_7
  1937  002756  6E21               	movwf	lcd_puts@s,c
  1938  002758  0E10               	movlw	high STR_7
  1939  00275A  6E22               	movwf	lcd_puts@s+1,c
  1940  00275C  EC07  F019         	call	_lcd_puts	;wreg free
  1941                           
  1942                           ;Hw2.c: 378: }
  1943  002760  0012               	return	
  1944  002762                     l204:
  1945  002762  506A               	movf	_currentMode,w,c	;volatile
  1946                           
  1947                           ; Switch size 1, requested type "space"
  1948                           ; Number of cases is 4, Range of values is 0 to 3
  1949                           ; switch strategies available:
  1950                           ; Name         Instructions Cycles
  1951                           ; simple_byte           13     7 (average)
  1952                           ;	Chosen strategy is simple_byte
  1953  002764  0A00               	xorlw	0	; case 0
  1954  002766  B4D8               	btfsc	status,2,c
  1955  002768  D7E0               	goto	l205
  1956  00276A  0A01               	xorlw	1	; case 1
  1957  00276C  B4D8               	btfsc	status,2,c
  1958  00276E  D7E4               	goto	l207
  1959  002770  0A03               	xorlw	3	; case 2
  1960  002772  B4D8               	btfsc	status,2,c
  1961  002774  D7E8               	goto	l208
  1962  002776  0A01               	xorlw	1	; case 3
  1963  002778  A4D8               	btfss	status,2,c
  1964  00277A  0012               	return	
  1965  00277C  D7EB               	goto	l209
  1966  00277E                     __end_of_printingOnLCD:
  1967                           	opt stack 0
  1968                           tblptru	equ	0xFF8
  1969                           tblptrh	equ	0xFF7
  1970                           tblptrl	equ	0xFF6
  1971                           tablat	equ	0xFF5
  1972                           intcon	equ	0xFF2
  1973                           intcon2	equ	0xFF1
  1974                           intcon3	equ	0xFF0
  1975                           postinc0	equ	0xFEE
  1976                           wreg	equ	0xFE8
  1977                           postdec1	equ	0xFE5
  1978                           fsr1l	equ	0xFE1
  1979                           status	equ	0xFD8
  1980                           
  1981 ;; *************** function _sprintf *****************
  1982 ;; Defined at:
  1983 ;;		line 492 in file "C:\Program Files (x86)\Microchip\xc8\v1.45\sources\common\doprnt.c"
  1984 ;; Parameters:    Size  Location     Type
  1985 ;;  sp              2    0[BANK0 ] PTR unsigned char 
  1986 ;;		 -> Buffer(32), 
  1987 ;;  f               2    2[BANK0 ] PTR const unsigned char 
  1988 ;;		 -> STR_3(18), STR_2(18), STR_1(16), 
  1989 ;; Auto vars:     Size  Location     Type
  1990 ;;  val             4   32[BANK0 ] unsigned long 
  1991 ;;  tmpval          4   28[BANK0 ] struct .
  1992 ;;  fval            3   40[BANK0 ] struct .
  1993 ;;  prec            2   43[BANK0 ] int 
  1994 ;;  width           2   38[BANK0 ] int 
  1995 ;;  exp             2   36[BANK0 ] int 
  1996 ;;  flag            2   26[BANK0 ] unsigned short 
  1997 ;;  len             2   24[BANK0 ] unsigned int 
  1998 ;;  ap              2   22[BANK0 ] PTR void [1]
  1999 ;;		 -> ?_sprintf(2), 
  2000 ;;  cp              2   20[BANK0 ] PTR const unsigned char 
  2001 ;;		 -> sprintf@c(1), 
  2002 ;;  c               1   45[BANK0 ] char 
  2003 ;;  d               1    0        unsigned char 
  2004 ;; Return value:  Size  Location     Type
  2005 ;;                  2    0[BANK0 ] int 
  2006 ;; Registers used:
  2007 ;;		wreg, fsr1l, fsr1h, fsr2l, fsr2h, status,2, status,0, tblptrl, tblptrh, tblptru, prodl, prodh, cstack
  2008 ;; Tracked objects:
  2009 ;;		On entry : 0/0
  2010 ;;		On exit  : 0/0
  2011 ;;		Unchanged: 0/0
  2012 ;; Data sizes:     COMRAM   BANK0   BANK1   BANK2   BANK3   BANK4   BANK5   BANK6   BANK7   BANK8   BANK9  BANK10  BANK1
      +1  BANK12  BANK13  BANK14  BANK15
  2013 ;;      Params:         0      11       0       0       0       0       0       0       0       0       0       0       
      +0       0       0       0       0
  2014 ;;      Locals:         0      29       0       0       0       0       0       0       0       0       0       0       
      +0       0       0       0       0
  2015 ;;      Temps:          0       6       0       0       0       0       0       0       0       0       0       0       
      +0       0       0       0       0
  2016 ;;      Totals:         0      46       0       0       0       0       0       0       0       0       0       0       
      +0       0       0       0       0
  2017 ;;Total ram usage:       46 bytes
  2018 ;; Hardware stack levels used:    1
  2019 ;; Hardware stack levels required when called:    4
  2020 ;; This function calls:
  2021 ;;		___awdiv
  2022 ;;		___ftadd
  2023 ;;		___ftge
  2024 ;;		___ftmul
  2025 ;;		___ftneg
  2026 ;;		___ftsub
  2027 ;;		___fttol
  2028 ;;		___lldiv
  2029 ;;		___llmod
  2030 ;;		___lltoft
  2031 ;;		___wmul
  2032 ;;		__div_to_l_
  2033 ;;		__tdiv_to_l_
  2034 ;;		_fround
  2035 ;;		_isdigit
  2036 ;;		_scale
  2037 ;; This function is called by:
  2038 ;;		_printingOnLCD
  2039 ;; This function uses a non-reentrant model
  2040 ;;
  2041                           
  2042                           	psect	text5
  2043  0010E8                     __ptext5:
  2044                           	opt stack 0
  2045  0010E8                     _sprintf:
  2046                           	opt stack 25
  2047                           
  2048                           ;doprnt.c: 494: va_list ap;
  2049                           ;doprnt.c: 499: signed char c;
  2050                           ;doprnt.c: 501: int width;
  2051                           ;doprnt.c: 504: int prec;
  2052                           ;doprnt.c: 508: unsigned short flag;
  2053                           ;doprnt.c: 515: char d;
  2054                           ;doprnt.c: 516: double fval;
  2055                           ;doprnt.c: 517: int exp;
  2056                           ;doprnt.c: 523: union {
  2057                           ;doprnt.c: 524: unsigned long vd;
  2058                           ;doprnt.c: 525: double integ;
  2059                           ;doprnt.c: 526: } tmpval;
  2060                           ;doprnt.c: 528: unsigned long val;
  2061                           ;doprnt.c: 529: unsigned len;
  2062                           ;doprnt.c: 530: const char * cp;
  2063                           ;doprnt.c: 533: *ap = __va_start();
  2064                           
  2065                           ;incstack = 0
  2066  0010E8  0E84               	movlw	low (?_sprintf+4)
  2067  0010EA  0100               	movlb	0	; () banked
  2068  0010EC  6F96               	movwf	sprintf@ap& (0+255),b
  2069  0010EE  0E00               	movlw	high (?_sprintf+4)
  2070  0010F0  6F97               	movwf	(sprintf@ap+1)& (0+255),b
  2071                           
  2072                           ;doprnt.c: 536: while(c = *f++) {
  2073  0010F2  EF99  F00D         	goto	u5170
  2074  0010F6                     
  2075                           ; BSR set to: 0
  2076                           ;doprnt.c: 538: if(c != '%')
  2077                           
  2078                           ; BSR set to: 0
  2079  0010F6  0E25               	movlw	37
  2080  0010F8  19AD               	xorwf	sprintf@c& (0+255),w,b
  2081  0010FA  B4D8               	btfsc	status,2,c
  2082  0010FC  D00A               	goto	l366
  2083                           
  2084                           ; BSR set to: 0
  2085                           ;doprnt.c: 540: {
  2086                           ;doprnt.c: 541: ((*sp++ = (c)));
  2087  0010FE  C080  FFD9         	movff	sprintf@sp,fsr2l
  2088  001102  C081  FFDA         	movff	sprintf@sp+1,fsr2h
  2089  001106  C0AD  FFDF         	movff	sprintf@c,indf2
  2090                           
  2091                           ; BSR set to: 0
  2092  00110A  4B80               	infsnz	sprintf@sp& (0+255),f,b
  2093  00110C  2B81               	incf	(sprintf@sp+1)& (0+255),f,b
  2094                           
  2095                           ;doprnt.c: 542: continue;
  2096  00110E  EF99  F00D         	goto	u5170
  2097  001112                     l366:
  2098                           
  2099                           ; BSR set to: 0
  2100                           ;doprnt.c: 543: }
  2101                           ;doprnt.c: 546: width = 0;
  2102                           
  2103                           ; BSR set to: 0
  2104  001112  0E00               	movlw	0
  2105  001114  6FA7               	movwf	(sprintf@width+1)& (0+255),b
  2106  001116  0E00               	movlw	0
  2107  001118  6FA6               	movwf	sprintf@width& (0+255),b
  2108                           
  2109                           ;doprnt.c: 548: flag = 0;
  2110  00111A  0E00               	movlw	0
  2111  00111C  6F9B               	movwf	(sprintf@flag+1)& (0+255),b
  2112  00111E  0E00               	movlw	0
  2113  001120  6F9A               	movwf	sprintf@flag& (0+255),b
  2114                           
  2115                           ; BSR set to: 0
  2116                           ;doprnt.c: 597: if(isdigit((unsigned)*f)) {
  2117  001122  C082  FFF6         	movff	sprintf@f,tblptrl
  2118  001126  C083  FFF7         	movff	sprintf@f+1,tblptrh
  2119  00112A                     	if	0	;tblptru may be non-zero
  2120  00112A                     	endif
  2121  00112A                     	if	0	;tblptru may be non-zero
  2122  00112A                     	endif
  2123  00112A  0008               	tblrd		*
  2124  00112C  50F5               	movf	tablat,w,c
  2125  00112E  EC04  F01B         	call	_isdigit
  2126  001132  A0D8               	btfss	status,0,c
  2127  001134  D034               	goto	u4660
  2128                           
  2129                           ;doprnt.c: 598: width = 0;
  2130  001136  0E00               	movlw	0
  2131  001138  0100               	movlb	0	; () banked
  2132  00113A  6FA7               	movwf	(sprintf@width+1)& (0+255),b
  2133  00113C  0E00               	movlw	0
  2134  00113E  6FA6               	movwf	sprintf@width& (0+255),b
  2135  001140                     
  2136                           ;doprnt.c: 600: width *= 10;
  2137                           
  2138                           ; BSR set to: 0
  2139  001140  C0A6  F021         	movff	sprintf@width,___wmul@multiplier
  2140  001144  C0A7  F022         	movff	sprintf@width+1,___wmul@multiplier+1
  2141  001148  0E00               	movlw	0
  2142  00114A  6E24               	movwf	___wmul@multiplicand+1,c
  2143  00114C  0E0A               	movlw	10
  2144  00114E  6E23               	movwf	___wmul@multiplicand,c
  2145  001150  EC63  F01A         	call	___wmul	;wreg free
  2146  001154  C021  F0A6         	movff	?___wmul,sprintf@width
  2147  001158  C022  F0A7         	movff	?___wmul+1,sprintf@width+1
  2148                           
  2149                           ;doprnt.c: 601: width += *f++ - '0';
  2150  00115C  0ED0               	movlw	208
  2151  00115E  0100               	movlb	0	; () banked
  2152  001160  6F8B               	movwf	??_sprintf& (0+255),b
  2153  001162  0EFF               	movlw	255
  2154  001164  6F8C               	movwf	(??_sprintf+1)& (0+255),b
  2155  001166  C082  FFF6         	movff	sprintf@f,tblptrl
  2156  00116A  C083  FFF7         	movff	sprintf@f+1,tblptrh
  2157  00116E                     	if	0	;tblptru may be non-zero
  2158  00116E                     	endif
  2159  00116E                     	if	0	;tblptru may be non-zero
  2160  00116E                     	endif
  2161  00116E  0008               	tblrd		*
  2162  001170  50F5               	movf	tablat,w,c
  2163  001172  6F8D               	movwf	(??_sprintf+2)& (0+255),b
  2164  001174  6B8E               	clrf	(??_sprintf+3)& (0+255),b
  2165  001176  518B               	movf	??_sprintf& (0+255),w,b
  2166  001178  278D               	addwf	(??_sprintf+2)& (0+255),f,b
  2167  00117A  518C               	movf	(??_sprintf+1)& (0+255),w,b
  2168  00117C  238E               	addwfc	(??_sprintf+3)& (0+255),f,b
  2169  00117E  518D               	movf	(??_sprintf+2)& (0+255),w,b
  2170  001180  27A6               	addwf	sprintf@width& (0+255),f,b
  2171  001182  518E               	movf	(??_sprintf+3)& (0+255),w,b
  2172  001184  23A7               	addwfc	(sprintf@width+1)& (0+255),f,b
  2173                           
  2174                           ; BSR set to: 0
  2175  001186  4B82               	infsnz	sprintf@f& (0+255),f,b
  2176  001188  2B83               	incf	(sprintf@f+1)& (0+255),f,b
  2177                           
  2178                           ; BSR set to: 0
  2179                           ;doprnt.c: 602: } while(isdigit((unsigned)*f));
  2180  00118A  C082  FFF6         	movff	sprintf@f,tblptrl
  2181  00118E  C083  FFF7         	movff	sprintf@f+1,tblptrh
  2182  001192                     	if	0	;tblptru may be non-zero
  2183  001192                     	endif
  2184  001192                     	if	0	;tblptru may be non-zero
  2185  001192                     	endif
  2186  001192  0008               	tblrd		*
  2187  001194  50F5               	movf	tablat,w,c
  2188  001196  EC04  F01B         	call	_isdigit
  2189  00119A  B0D8               	btfsc	status,0,c
  2190  00119C  D7D1               	goto	l368
  2191  00119E                     u4660:
  2192                           
  2193                           ;doprnt.c: 608: }
  2194                           ;doprnt.c: 611: if(*f == '.') {
  2195  00119E  C082  FFF6         	movff	sprintf@f,tblptrl
  2196  0011A2  C083  FFF7         	movff	sprintf@f+1,tblptrh
  2197  0011A6                     	if	0	;tblptru may be non-zero
  2198  0011A6                     	endif
  2199  0011A6                     	if	0	;tblptru may be non-zero
  2200  0011A6                     	endif
  2201  0011A6  0008               	tblrd		*
  2202  0011A8  50F5               	movf	tablat,w,c
  2203  0011AA  0A2E               	xorlw	46
  2204  0011AC  A4D8               	btfss	status,2,c
  2205  0011AE  D030               	goto	l370
  2206                           
  2207                           ;doprnt.c: 612: flag |= 0x4000;
  2208  0011B0  0100               	movlb	0	; () banked
  2209  0011B2  8D9B               	bsf	(sprintf@flag+1)& (0+255),6,b
  2210                           
  2211                           ;doprnt.c: 613: f++;
  2212  0011B4  4B82               	infsnz	sprintf@f& (0+255),f,b
  2213  0011B6  2B83               	incf	(sprintf@f+1)& (0+255),f,b
  2214                           
  2215                           ; BSR set to: 0
  2216                           ;doprnt.c: 620: {
  2217                           ;doprnt.c: 621: prec = 0;
  2218  0011B8  0E00               	movlw	0
  2219  0011BA  6FAC               	movwf	(sprintf@prec+1)& (0+255),b
  2220  0011BC  0E00               	movlw	0
  2221  0011BE  6FAB               	movwf	sprintf@prec& (0+255),b
  2222                           
  2223                           ;doprnt.c: 622: while(isdigit((unsigned)*f))
  2224  0011C0  D01C               	goto	l371
  2225  0011C2                     
  2226                           ;doprnt.c: 623: prec = prec*10 + *f++ - '0';
  2227                           
  2228                           ; BSR set to: 0
  2229  0011C2  C0AB  F021         	movff	sprintf@prec,___wmul@multiplier
  2230  0011C6  C0AC  F022         	movff	sprintf@prec+1,___wmul@multiplier+1
  2231  0011CA  0E00               	movlw	0
  2232  0011CC  6E24               	movwf	___wmul@multiplicand+1,c
  2233  0011CE  0E0A               	movlw	10
  2234  0011D0  6E23               	movwf	___wmul@multiplicand,c
  2235  0011D2  EC63  F01A         	call	___wmul	;wreg free
  2236  0011D6  C082  FFF6         	movff	sprintf@f,tblptrl
  2237  0011DA  C083  FFF7         	movff	sprintf@f+1,tblptrh
  2238  0011DE                     	if	0	;tblptru may be non-zero
  2239  0011DE                     	endif
  2240  0011DE                     	if	0	;tblptru may be non-zero
  2241  0011DE                     	endif
  2242  0011DE  0008               	tblrd		*
  2243  0011E0  50F5               	movf	tablat,w,c
  2244  0011E2  2621               	addwf	?___wmul,f,c
  2245  0011E4  0E00               	movlw	0
  2246  0011E6  2222               	addwfc	?___wmul+1,f,c
  2247  0011E8  0ED0               	movlw	208
  2248  0011EA  2421               	addwf	?___wmul,w,c
  2249  0011EC  0100               	movlb	0	; () banked
  2250  0011EE  6FAB               	movwf	sprintf@prec& (0+255),b
  2251  0011F0  0EFF               	movlw	255
  2252  0011F2  2022               	addwfc	?___wmul+1,w,c
  2253  0011F4  6FAC               	movwf	(sprintf@prec+1)& (0+255),b
  2254                           
  2255                           ; BSR set to: 0
  2256  0011F6  4B82               	infsnz	sprintf@f& (0+255),f,b
  2257  0011F8  2B83               	incf	(sprintf@f+1)& (0+255),f,b
  2258  0011FA                     l371:
  2259                           
  2260                           ; BSR set to: 0
  2261                           
  2262                           ; BSR set to: 0
  2263  0011FA  C082  FFF6         	movff	sprintf@f,tblptrl
  2264  0011FE  C083  FFF7         	movff	sprintf@f+1,tblptrh
  2265  001202                     	if	0	;tblptru may be non-zero
  2266  001202                     	endif
  2267  001202                     	if	0	;tblptru may be non-zero
  2268  001202                     	endif
  2269  001202  0008               	tblrd		*
  2270  001204  50F5               	movf	tablat,w,c
  2271  001206  EC04  F01B         	call	_isdigit
  2272  00120A  A0D8               	btfss	status,0,c
  2273  00120C  D064               	goto	l375
  2274  00120E  D7D9               	goto	l372
  2275  001210                     l370:
  2276                           
  2277                           ;doprnt.c: 626: prec = 0;
  2278  001210  0E00               	movlw	0
  2279  001212  0100               	movlb	0	; () banked
  2280  001214  6FAC               	movwf	(sprintf@prec+1)& (0+255),b
  2281  001216  0E00               	movlw	0
  2282  001218  6FAB               	movwf	sprintf@prec& (0+255),b
  2283                           
  2284                           ; BSR set to: 0
  2285                           ;doprnt.c: 628: flag |= 0x1000;
  2286  00121A  899B               	bsf	(sprintf@flag+1)& (0+255),4,b
  2287                           
  2288                           ; BSR set to: 0
  2289                           ;doprnt.c: 630: }
  2290                           ;doprnt.c: 635: switch(c = *f++) {
  2291  00121C  D05C               	goto	l375
  2292  00121E                     
  2293                           ; BSR set to: 0
  2294                           ;doprnt.c: 663: flag |= 0x400;
  2295                           
  2296                           ; BSR set to: 0
  2297  00121E  859B               	bsf	(sprintf@flag+1)& (0+255),2,b
  2298                           
  2299                           ; BSR set to: 0
  2300                           ;doprnt.c: 698: case 'i':
  2301                           ;doprnt.c: 699: break;
  2302                           
  2303                           ; BSR set to: 0
  2304                           
  2305                           ;doprnt.c: 697: case 'd':
  2306                           
  2307                           ;doprnt.c: 664: break;
  2308  001220  D075               	goto	l379
  2309  001222                     
  2310                           ; BSR set to: 0
  2311                           ;doprnt.c: 753: if(prec && prec < len)
  2312                           
  2313                           ; BSR set to: 0
  2314  001222  51AB               	movf	sprintf@prec& (0+255),w,b
  2315  001224  11AC               	iorwf	(sprintf@prec+1)& (0+255),w,b
  2316  001226  B4D8               	btfsc	status,2,c
  2317  001228  D00A               	goto	l383
  2318                           
  2319                           ; BSR set to: 0
  2320  00122A  5198               	movf	sprintf@len& (0+255),w,b
  2321  00122C  5DAB               	subwf	sprintf@prec& (0+255),w,b
  2322  00122E  5199               	movf	(sprintf@len+1)& (0+255),w,b
  2323  001230  59AC               	subwfb	(sprintf@prec+1)& (0+255),w,b
  2324  001232  B0D8               	btfsc	status,0,c
  2325  001234  D004               	goto	l383
  2326                           
  2327                           ; BSR set to: 0
  2328                           ;doprnt.c: 754: len = prec;
  2329  001236  C0AB  F098         	movff	sprintf@prec,sprintf@len
  2330  00123A  C0AC  F099         	movff	sprintf@prec+1,sprintf@len+1
  2331  00123E                     l383:
  2332                           
  2333                           ; BSR set to: 0
  2334                           ;doprnt.c: 757: if(width > len)
  2335                           
  2336                           ; BSR set to: 0
  2337  00123E  51A6               	movf	sprintf@width& (0+255),w,b
  2338  001240  5D98               	subwf	sprintf@len& (0+255),w,b
  2339  001242  51A7               	movf	(sprintf@width+1)& (0+255),w,b
  2340  001244  5999               	subwfb	(sprintf@len+1)& (0+255),w,b
  2341  001246  B0D8               	btfsc	status,0,c
  2342  001248  D005               	goto	l384
  2343                           
  2344                           ; BSR set to: 0
  2345                           ;doprnt.c: 758: width -= len;
  2346  00124A  5198               	movf	sprintf@len& (0+255),w,b
  2347  00124C  5FA6               	subwf	sprintf@width& (0+255),f,b
  2348  00124E  5199               	movf	(sprintf@len+1)& (0+255),w,b
  2349  001250  5BA7               	subwfb	(sprintf@width+1)& (0+255),f,b
  2350  001252  D00D               	goto	l386
  2351  001254                     l384:
  2352                           
  2353                           ; BSR set to: 0
  2354                           ;doprnt.c: 759: else
  2355                           ;doprnt.c: 760: width = 0;
  2356                           
  2357                           ; BSR set to: 0
  2358  001254  0E00               	movlw	0
  2359  001256  6FA7               	movwf	(sprintf@width+1)& (0+255),b
  2360  001258  0E00               	movlw	0
  2361  00125A  6FA6               	movwf	sprintf@width& (0+255),b
  2362                           
  2363                           ; BSR set to: 0
  2364                           ;doprnt.c: 764: while(width--)
  2365  00125C  D008               	goto	l386
  2366  00125E                     l4454:
  2367                           
  2368                           ; BSR set to: 0
  2369                           ;doprnt.c: 765: ((*sp++ = (' ')));
  2370  00125E  C080  FFD9         	movff	sprintf@sp,fsr2l
  2371  001262  C081  FFDA         	movff	sprintf@sp+1,fsr2h
  2372  001266  0E20               	movlw	32
  2373  001268  6EDF               	movwf	indf2,c
  2374                           
  2375                           ; BSR set to: 0
  2376  00126A  4B80               	infsnz	sprintf@sp& (0+255),f,b
  2377  00126C  2B81               	incf	(sprintf@sp+1)& (0+255),f,b
  2378  00126E                     l386:
  2379                           
  2380                           ; BSR set to: 0
  2381                           
  2382                           ; BSR set to: 0
  2383  00126E  07A6               	decf	sprintf@width& (0+255),f,b
  2384  001270  A0D8               	btfss	status,0,c
  2385  001272  07A7               	decf	(sprintf@width+1)& (0+255),f,b
  2386  001274  29A6               	incf	sprintf@width& (0+255),w,b
  2387  001276  E1F3               	bnz	l4454
  2388  001278  29A7               	incf	(sprintf@width+1)& (0+255),w,b
  2389  00127A  B4D8               	btfsc	status,2,c
  2390  00127C  D00F               	goto	l389
  2391  00127E  D7EF               	goto	l387
  2392  001280                     l4460:
  2393                           
  2394                           ; BSR set to: 0
  2395                           ;doprnt.c: 768: ((*sp++ = (*cp++)));
  2396  001280  C094  FFD9         	movff	sprintf@cp,fsr2l
  2397  001284  C095  FFDA         	movff	sprintf@cp+1,fsr2h
  2398  001288  C080  FFE1         	movff	sprintf@sp,fsr1l
  2399  00128C  C081  FFE2         	movff	sprintf@sp+1,fsr1h
  2400  001290  CFDF FFE7          	movff	indf2,indf1
  2401                           
  2402                           ; BSR set to: 0
  2403  001294  4B94               	infsnz	sprintf@cp& (0+255),f,b
  2404  001296  2B95               	incf	(sprintf@cp+1)& (0+255),f,b
  2405                           
  2406                           ; BSR set to: 0
  2407  001298  4B80               	infsnz	sprintf@sp& (0+255),f,b
  2408  00129A  2B81               	incf	(sprintf@sp+1)& (0+255),f,b
  2409  00129C                     l389:
  2410                           
  2411                           ; BSR set to: 0
  2412                           
  2413                           ; BSR set to: 0
  2414  00129C  0798               	decf	sprintf@len& (0+255),f,b
  2415  00129E  A0D8               	btfss	status,0,c
  2416  0012A0  0799               	decf	(sprintf@len+1)& (0+255),f,b
  2417  0012A2  2998               	incf	sprintf@len& (0+255),w,b
  2418  0012A4  E1ED               	bnz	l4460
  2419  0012A6  2999               	incf	(sprintf@len+1)& (0+255),w,b
  2420  0012A8  B4D8               	btfsc	status,2,c
  2421  0012AA  EF99  F00D         	goto	u5170
  2422  0012AE  D7E8               	goto	l390
  2423  0012B0                     
  2424                           ; BSR set to: 0
  2425                           ;doprnt.c: 799: c = (*(int *)__va_arg((*(int **)ap), (int)0));
  2426                           
  2427                           ; BSR set to: 0
  2428  0012B0  C096  FFD9         	movff	sprintf@ap,fsr2l
  2429  0012B4  C097  FFDA         	movff	sprintf@ap+1,fsr2h
  2430  0012B8  50DF               	movf	indf2,w,c
  2431  0012BA  6FAD               	movwf	sprintf@c& (0+255),b
  2432                           
  2433                           ; BSR set to: 0
  2434  0012BC  0E02               	movlw	2
  2435  0012BE  2796               	addwf	sprintf@ap& (0+255),f,b
  2436  0012C0  0E00               	movlw	0
  2437  0012C2  2397               	addwfc	(sprintf@ap+1)& (0+255),f,b
  2438  0012C4                     
  2439                           ; BSR set to: 0
  2440                           ;doprnt.c: 805: cp = (char *)&c;
  2441                           
  2442                           ; BSR set to: 0
  2443  0012C4  0EAD               	movlw	low sprintf@c
  2444  0012C6  6F94               	movwf	sprintf@cp& (0+255),b
  2445  0012C8  0E00               	movlw	high sprintf@c
  2446  0012CA  6F95               	movwf	(sprintf@cp+1)& (0+255),b
  2447                           
  2448                           ; BSR set to: 0
  2449                           ;doprnt.c: 806: len = 1;
  2450  0012CC  0E00               	movlw	0
  2451  0012CE  6F99               	movwf	(sprintf@len+1)& (0+255),b
  2452  0012D0  0E01               	movlw	1
  2453  0012D2  6F98               	movwf	sprintf@len& (0+255),b
  2454                           
  2455                           ;doprnt.c: 807: goto dostring;
  2456  0012D4  D7A6               	goto	l382
  2457  0012D6                     l375:
  2458                           
  2459                           ; BSR set to: 0
  2460  0012D6  C082  FFF6         	movff	sprintf@f,tblptrl
  2461  0012DA  C083  FFF7         	movff	sprintf@f+1,tblptrh
  2462  0012DE  0100               	movlb	0	; () banked
  2463  0012E0  4B82               	infsnz	sprintf@f& (0+255),f,b
  2464  0012E2  2B83               	incf	(sprintf@f+1)& (0+255),f,b
  2465  0012E4                     	if	0	;tblptru may be non-zero
  2466  0012E4                     	endif
  2467  0012E4                     	if	0	;tblptru may be non-zero
  2468  0012E4                     	endif
  2469  0012E4  0008               	tblrd		*
  2470  0012E6  CFF5 F0AD          	movff	tablat,sprintf@c
  2471  0012EA  51AD               	movf	sprintf@c& (0+255),w,b
  2472                           
  2473                           ; Switch size 1, requested type "space"
  2474                           ; Number of cases is 5, Range of values is 0 to 105
  2475                           ; switch strategies available:
  2476                           ; Name         Instructions Cycles
  2477                           ; simple_byte           16     9 (average)
  2478                           ;	Chosen strategy is simple_byte
  2479  0012EC  0A00               	xorlw	0	; case 0
  2480  0012EE  B4D8               	btfsc	status,2,c
  2481  0012F0  EFA6  F00D         	goto	u5180
  2482  0012F4  0A63               	xorlw	99	; case 99
  2483  0012F6  B4D8               	btfsc	status,2,c
  2484  0012F8  D7DB               	goto	l392
  2485  0012FA  0A07               	xorlw	7	; case 100
  2486  0012FC  B4D8               	btfsc	status,2,c
  2487  0012FE  D006               	goto	l379
  2488  001300  0A02               	xorlw	2	; case 102
  2489  001302  B4D8               	btfsc	status,2,c
  2490  001304  D78C               	goto	l378
  2491  001306  0A0F               	xorlw	15	; case 105
  2492  001308  A4D8               	btfss	status,2,c
  2493  00130A  D7DC               	goto	l393
  2494  00130C                     l379:
  2495                           
  2496                           ; BSR set to: 0
  2497                           ;doprnt.c: 825: if(flag & (0x700)) {
  2498                           
  2499                           ; BSR set to: 0
  2500  00130C  0E07               	movlw	7
  2501  00130E  159B               	andwf	(sprintf@flag+1)& (0+255),w,b
  2502  001310  B4D8               	btfsc	status,2,c
  2503  001312  D2FE               	goto	l394
  2504                           
  2505                           ; BSR set to: 0
  2506                           ;doprnt.c: 827: if(flag & 0x1000)
  2507  001314  A99B               	btfss	(sprintf@flag+1)& (0+255),4,b
  2508  001316  D004               	goto	l395
  2509                           
  2510                           ; BSR set to: 0
  2511                           ;doprnt.c: 829: prec = 6;
  2512  001318  0E00               	movlw	0
  2513  00131A  6FAC               	movwf	(sprintf@prec+1)& (0+255),b
  2514  00131C  0E06               	movlw	6
  2515  00131E  6FAB               	movwf	sprintf@prec& (0+255),b
  2516  001320                     l395:
  2517                           
  2518                           ; BSR set to: 0
  2519                           ;doprnt.c: 830: fval = (*(double *)__va_arg((*(double **)ap), (double)0));
  2520                           
  2521                           ; BSR set to: 0
  2522  001320  C096  FFD9         	movff	sprintf@ap,fsr2l
  2523  001324  C097  FFDA         	movff	sprintf@ap+1,fsr2h
  2524  001328  CFDE F0A8          	movff	postinc2,sprintf@fval
  2525  00132C  CFDE F0A9          	movff	postinc2,sprintf@fval+1
  2526  001330  CFDD F0AA          	movff	postdec2,sprintf@fval+2
  2527                           
  2528                           ; BSR set to: 0
  2529  001334  0E03               	movlw	3
  2530  001336  2796               	addwf	sprintf@ap& (0+255),f,b
  2531  001338  0E00               	movlw	0
  2532  00133A  2397               	addwfc	(sprintf@ap+1)& (0+255),f,b
  2533                           
  2534                           ; BSR set to: 0
  2535                           ;doprnt.c: 831: if(fval < 0.0) {
  2536  00133C  AFAA               	btfss	(sprintf@fval+2)& (0+255),7,b
  2537  00133E  D011               	goto	l396
  2538                           
  2539                           ; BSR set to: 0
  2540                           ;doprnt.c: 832: fval = -fval;
  2541  001340  C0A8  F01F         	movff	sprintf@fval,___ftneg@f1
  2542  001344  C0A9  F020         	movff	sprintf@fval+1,___ftneg@f1+1
  2543  001348  C0AA  F021         	movff	sprintf@fval+2,___ftneg@f1+2
  2544  00134C  ECC0  F01A         	call	___ftneg	;wreg free
  2545  001350  C01F  F0A8         	movff	?___ftneg,sprintf@fval
  2546  001354  C020  F0A9         	movff	?___ftneg+1,sprintf@fval+1
  2547  001358  C021  F0AA         	movff	?___ftneg+2,sprintf@fval+2
  2548                           
  2549                           ;doprnt.c: 833: flag |= 0x03;
  2550  00135C  0E03               	movlw	3
  2551  00135E  0100               	movlb	0	; () banked
  2552  001360  139A               	iorwf	sprintf@flag& (0+255),f,b
  2553  001362                     l396:
  2554                           
  2555                           ; BSR set to: 0
  2556                           ;doprnt.c: 834: }
  2557                           ;doprnt.c: 835: exp = 0;
  2558                           
  2559                           ; BSR set to: 0
  2560  001362  0E00               	movlw	0
  2561  001364  6FA5               	movwf	(sprintf@exp+1)& (0+255),b
  2562  001366  0E00               	movlw	0
  2563  001368  6FA4               	movwf	sprintf@exp& (0+255),b
  2564                           
  2565                           ; BSR set to: 0
  2566                           ;doprnt.c: 836: if( fval!=0) {
  2567  00136A  51A8               	movf	sprintf@fval& (0+255),w,b
  2568  00136C  11A9               	iorwf	(sprintf@fval+1)& (0+255),w,b
  2569  00136E  11AA               	iorwf	(sprintf@fval+2)& (0+255),w,b
  2570  001370  B4D8               	btfsc	status,2,c
  2571  001372  D086               	goto	l401
  2572                           
  2573                           ; BSR set to: 0
  2574                           ;doprnt.c: 837: (void)(*(&exp) = ((*(unsigned long *)&fval >> 15) & 255) - 126);
  2575  001374  0E82               	movlw	130
  2576  001376  6F8B               	movwf	??_sprintf& (0+255),b
  2577  001378  0EFF               	movlw	255
  2578  00137A  6F8C               	movwf	(??_sprintf+1)& (0+255),b
  2579  00137C  C0A8  F08D         	movff	sprintf@fval,??_sprintf+2
  2580  001380  C0A9  F08E         	movff	sprintf@fval+1,??_sprintf+3
  2581  001384  C0AA  F08F         	movff	sprintf@fval+2,??_sprintf+4
  2582  001388  C0AB  F090         	movff	sprintf@fval+3,??_sprintf+5
  2583  00138C  0E10               	movlw	16
  2584  00138E  D005               	goto	u4780
  2585  001390                     u4785:
  2586  001390  90D8               	bcf	status,0,c
  2587  001392  3390               	rrcf	(??_sprintf+5)& (0+255),f,b
  2588  001394  338F               	rrcf	(??_sprintf+4)& (0+255),f,b
  2589  001396  338E               	rrcf	(??_sprintf+3)& (0+255),f,b
  2590  001398  338D               	rrcf	(??_sprintf+2)& (0+255),f,b
  2591  00139A                     u4780:
  2592  00139A  2EE8               	decfsz	wreg,f,c
  2593  00139C  D7F9               	goto	u4785
  2594  00139E  518D               	movf	(??_sprintf+2)& (0+255),w,b
  2595  0013A0  258B               	addwf	??_sprintf& (0+255),w,b
  2596  0013A2  6FA4               	movwf	sprintf@exp& (0+255),b
  2597  0013A4  0E00               	movlw	0
  2598  0013A6  218C               	addwfc	(??_sprintf+1)& (0+255),w,b
  2599  0013A8  6FA5               	movwf	(sprintf@exp+1)& (0+255),b
  2600                           
  2601                           ; BSR set to: 0
  2602                           ;doprnt.c: 838: exp--;
  2603  0013AA  07A4               	decf	sprintf@exp& (0+255),f,b
  2604  0013AC  A0D8               	btfss	status,0,c
  2605  0013AE  07A5               	decf	(sprintf@exp+1)& (0+255),f,b
  2606                           
  2607                           ; BSR set to: 0
  2608                           ;doprnt.c: 839: exp *= 3;
  2609  0013B0  C0A4  F021         	movff	sprintf@exp,___wmul@multiplier
  2610  0013B4  C0A5  F022         	movff	sprintf@exp+1,___wmul@multiplier+1
  2611  0013B8  0E00               	movlw	0
  2612  0013BA  6E24               	movwf	___wmul@multiplicand+1,c
  2613  0013BC  0E03               	movlw	3
  2614  0013BE  6E23               	movwf	___wmul@multiplicand,c
  2615  0013C0  EC63  F01A         	call	___wmul	;wreg free
  2616  0013C4  C021  F0A4         	movff	?___wmul,sprintf@exp
  2617  0013C8  C022  F0A5         	movff	?___wmul+1,sprintf@exp+1
  2618                           
  2619                           ;doprnt.c: 840: exp /= 10;
  2620  0013CC  C0A4  F019         	movff	sprintf@exp,___awdiv@dividend
  2621  0013D0  C0A5  F01A         	movff	sprintf@exp+1,___awdiv@dividend+1
  2622  0013D4  0E00               	movlw	0
  2623  0013D6  6E1C               	movwf	___awdiv@divisor+1,c
  2624  0013D8  0E0A               	movlw	10
  2625  0013DA  6E1B               	movwf	___awdiv@divisor,c
  2626  0013DC  ECBA  F017         	call	___awdiv	;wreg free
  2627  0013E0  C019  F0A4         	movff	?___awdiv,sprintf@exp
  2628  0013E4  C01A  F0A5         	movff	?___awdiv+1,sprintf@exp+1
  2629                           
  2630                           ;doprnt.c: 841: if(exp < 0)
  2631  0013E8  0100               	movlb	0	; () banked
  2632  0013EA  AFA5               	btfss	(sprintf@exp+1)& (0+255),7,b
  2633  0013EC  D003               	goto	l398
  2634                           
  2635                           ; BSR set to: 0
  2636                           ;doprnt.c: 842: exp--;
  2637  0013EE  07A4               	decf	sprintf@exp& (0+255),f,b
  2638  0013F0  A0D8               	btfss	status,0,c
  2639  0013F2  07A5               	decf	(sprintf@exp+1)& (0+255),f,b
  2640  0013F4                     l398:
  2641                           
  2642                           ; BSR set to: 0
  2643                           ;doprnt.c: 846: tmpval.integ = scale(-exp);
  2644                           
  2645                           ; BSR set to: 0
  2646  0013F4  51A4               	movf	sprintf@exp& (0+255),w,b
  2647  0013F6  0800               	sublw	0
  2648  0013F8  ECAD  F00D         	call	_scale
  2649  0013FC  C036  F09C         	movff	?_scale,sprintf@tmpval
  2650  001400  C037  F09D         	movff	?_scale+1,sprintf@tmpval+1
  2651  001404  C038  F09E         	movff	?_scale+2,sprintf@tmpval+2
  2652                           
  2653                           ;doprnt.c: 847: tmpval.integ *= fval;
  2654  001408  C09C  F027         	movff	sprintf@tmpval,___ftmul@f1
  2655  00140C  C09D  F028         	movff	sprintf@tmpval+1,___ftmul@f1+1
  2656  001410  C09E  F029         	movff	sprintf@tmpval+2,___ftmul@f1+2
  2657  001414  C0A8  F02A         	movff	sprintf@fval,___ftmul@f2
  2658  001418  C0A9  F02B         	movff	sprintf@fval+1,___ftmul@f2+1
  2659  00141C  C0AA  F02C         	movff	sprintf@fval+2,___ftmul@f2+2
  2660  001420  ECEC  F014         	call	___ftmul	;wreg free
  2661  001424  C027  F09C         	movff	?___ftmul,sprintf@tmpval
  2662  001428  C028  F09D         	movff	?___ftmul+1,sprintf@tmpval+1
  2663  00142C  C029  F09E         	movff	?___ftmul+2,sprintf@tmpval+2
  2664                           
  2665                           ;doprnt.c: 848: if(tmpval.integ < 1.0)
  2666  001430  C09C  F04C         	movff	sprintf@tmpval,___ftge@ff1
  2667  001434  C09D  F04D         	movff	sprintf@tmpval+1,___ftge@ff1+1
  2668  001438  C09E  F04E         	movff	sprintf@tmpval+2,___ftge@ff1+2
  2669  00143C  0E00               	movlw	0
  2670  00143E  6E4F               	movwf	___ftge@ff2,c
  2671  001440  0E80               	movlw	128
  2672  001442  6E50               	movwf	___ftge@ff2+1,c
  2673  001444  0E3F               	movlw	63
  2674  001446  6E51               	movwf	___ftge@ff2+2,c
  2675  001448  EC72  F017         	call	___ftge	;wreg free
  2676  00144C  B0D8               	btfsc	status,0,c
  2677  00144E  D005               	goto	l399
  2678                           
  2679                           ;doprnt.c: 849: exp--;
  2680  001450  0100               	movlb	0	; () banked
  2681  001452  07A4               	decf	sprintf@exp& (0+255),f,b
  2682  001454  A0D8               	btfss	status,0,c
  2683  001456  07A5               	decf	(sprintf@exp+1)& (0+255),f,b
  2684  001458  D013               	goto	l401
  2685  00145A                     l399:
  2686                           
  2687                           ;doprnt.c: 850: else if(tmpval.integ >= 10.0)
  2688                           
  2689                           ; BSR set to: 0
  2690  00145A  C09C  F04C         	movff	sprintf@tmpval,___ftge@ff1
  2691  00145E  C09D  F04D         	movff	sprintf@tmpval+1,___ftge@ff1+1
  2692  001462  C09E  F04E         	movff	sprintf@tmpval+2,___ftge@ff1+2
  2693  001466  0E00               	movlw	0
  2694  001468  6E4F               	movwf	___ftge@ff2,c
  2695  00146A  0E20               	movlw	32
  2696  00146C  6E50               	movwf	___ftge@ff2+1,c
  2697  00146E  0E41               	movlw	65
  2698  001470  6E51               	movwf	___ftge@ff2+2,c
  2699  001472  EC72  F017         	call	___ftge	;wreg free
  2700  001476  A0D8               	btfss	status,0,c
  2701  001478  D003               	goto	l401
  2702                           
  2703                           ;doprnt.c: 851: exp++;
  2704  00147A  0100               	movlb	0	; () banked
  2705  00147C  4BA4               	infsnz	sprintf@exp& (0+255),f,b
  2706  00147E  2BA5               	incf	(sprintf@exp+1)& (0+255),f,b
  2707  001480                     l401:
  2708                           
  2709                           ;doprnt.c: 852: }
  2710                           ;doprnt.c: 1112: if(prec <= 12)
  2711                           
  2712                           ; BSR set to: 0
  2713                           
  2714                           ; BSR set to: 0
  2715                           
  2716                           ; BSR set to: 0
  2717  001480  0100               	movlb	0	; () banked
  2718  001482  BFAC               	btfsc	(sprintf@prec+1)& (0+255),7,b
  2719  001484  D006               	goto	u4820
  2720  001486  51AC               	movf	(sprintf@prec+1)& (0+255),w,b
  2721  001488  E11B               	bnz	l4528
  2722  00148A  0E0D               	movlw	13
  2723  00148C  5DAB               	subwf	sprintf@prec& (0+255),w,b
  2724  00148E  B0D8               	btfsc	status,0,c
  2725  001490  D017               	goto	l402
  2726  001492                     u4820:
  2727                           
  2728                           ; BSR set to: 0
  2729                           ;doprnt.c: 1113: fval += fround(prec);
  2730  001492  C0A8  F040         	movff	sprintf@fval,___ftadd@f1
  2731  001496  C0A9  F041         	movff	sprintf@fval+1,___ftadd@f1+1
  2732  00149A  C0AA  F042         	movff	sprintf@fval+2,___ftadd@f1+2
  2733  00149E  51AB               	movf	sprintf@prec& (0+255),w,b
  2734  0014A0  EC17  F011         	call	_fround
  2735  0014A4  C036  F043         	movff	?_fround,___ftadd@f2
  2736  0014A8  C037  F044         	movff	?_fround+1,___ftadd@f2+1
  2737  0014AC  C038  F045         	movff	?_fround+2,___ftadd@f2+2
  2738  0014B0  EC40  F012         	call	___ftadd	;wreg free
  2739  0014B4  C040  F0A8         	movff	?___ftadd,sprintf@fval
  2740  0014B8  C041  F0A9         	movff	?___ftadd+1,sprintf@fval+1
  2741  0014BC  C042  F0AA         	movff	?___ftadd+2,sprintf@fval+2
  2742  0014C0                     l402:
  2743  0014C0                     l4528:
  2744                           
  2745                           ;doprnt.c: 1116: if((exp > 9)||(fval != 0 && (unsigned long)fval == 0 && exp > 1)) {
  2746  0014C0  0100               	movlb	0	; () banked
  2747  0014C2  BFA5               	btfsc	(sprintf@exp+1)& (0+255),7,b
  2748  0014C4  D006               	goto	u4830
  2749  0014C6  51A5               	movf	(sprintf@exp+1)& (0+255),w,b
  2750  0014C8  E120               	bnz	l4536
  2751  0014CA  0E0A               	movlw	10
  2752  0014CC  5DA4               	subwf	sprintf@exp& (0+255),w,b
  2753  0014CE  B0D8               	btfsc	status,0,c
  2754  0014D0  D01C               	goto	u4860
  2755  0014D2                     u4830:
  2756                           
  2757                           ; BSR set to: 0
  2758  0014D2  51A8               	movf	sprintf@fval& (0+255),w,b
  2759  0014D4  11A9               	iorwf	(sprintf@fval+1)& (0+255),w,b
  2760  0014D6  11AA               	iorwf	(sprintf@fval+2)& (0+255),w,b
  2761  0014D8  B4D8               	btfsc	status,2,c
  2762  0014DA  D056               	goto	l403
  2763                           
  2764                           ; BSR set to: 0
  2765  0014DC  C0A8  F03D         	movff	sprintf@fval,___fttol@f1
  2766  0014E0  C0A9  F03E         	movff	sprintf@fval+1,___fttol@f1+1
  2767  0014E4  C0AA  F03F         	movff	sprintf@fval+2,___fttol@f1+2
  2768  0014E8  EC66  F015         	call	___fttol	;wreg free
  2769  0014EC  503D               	movf	?___fttol,w,c
  2770  0014EE  103E               	iorwf	?___fttol+1,w,c
  2771  0014F0  103F               	iorwf	?___fttol+2,w,c
  2772  0014F2  1040               	iorwf	?___fttol+3,w,c
  2773  0014F4  A4D8               	btfss	status,2,c
  2774  0014F6  D048               	goto	l403
  2775  0014F8  0100               	movlb	0	; () banked
  2776  0014FA  BFA5               	btfsc	(sprintf@exp+1)& (0+255),7,b
  2777  0014FC  D045               	goto	l403
  2778  0014FE  51A5               	movf	(sprintf@exp+1)& (0+255),w,b
  2779  001500  E104               	bnz	l4536
  2780  001502  0E02               	movlw	2
  2781  001504  5DA4               	subwf	sprintf@exp& (0+255),w,b
  2782  001506  A0D8               	btfss	status,0,c
  2783  001508  D03F               	goto	l403
  2784  00150A                     u4860:
  2785  00150A                     l4536:
  2786                           
  2787                           ; BSR set to: 0
  2788                           ;doprnt.c: 1120: if(tmpval.integ < 4.294967296){
  2789  00150A  C09C  F04C         	movff	sprintf@tmpval,___ftge@ff1
  2790  00150E  C09D  F04D         	movff	sprintf@tmpval+1,___ftge@ff1+1
  2791  001512  C09E  F04E         	movff	sprintf@tmpval+2,___ftge@ff1+2
  2792  001516  0E70               	movlw	112
  2793  001518  6E4F               	movwf	___ftge@ff2,c
  2794  00151A  0E89               	movlw	137
  2795  00151C  6E50               	movwf	___ftge@ff2+1,c
  2796  00151E  0E40               	movlw	64
  2797  001520  6E51               	movwf	___ftge@ff2+2,c
  2798  001522  EC72  F017         	call	___ftge	;wreg free
  2799  001526  B0D8               	btfsc	status,0,c
  2800  001528  D003               	goto	l406
  2801                           
  2802                           ;doprnt.c: 1121: exp -= (sizeof dpowers/sizeof dpowers[0])-1;
  2803  00152A  0100               	movlb	0	; () banked
  2804  00152C  0EF7               	movlw	247
  2805  00152E  D002               	goto	L3
  2806  001530                     l406:
  2807                           
  2808                           ;doprnt.c: 1123: exp -= (sizeof dpowers/sizeof dpowers[0])-2;
  2809                           
  2810                           ; BSR set to: 0
  2811  001530  0100               	movlb	0	; () banked
  2812  001532  0EF8               	movlw	248
  2813  001534                     L3:
  2814  001534  27A4               	addwf	sprintf@exp& (0+255),f,b
  2815  001536  0EFF               	movlw	255
  2816  001538  23A5               	addwfc	(sprintf@exp+1)& (0+255),f,b
  2817                           
  2818                           ; BSR set to: 0
  2819                           ;doprnt.c: 1124: }
  2820                           ;doprnt.c: 1125: tmpval.integ = scale(exp);
  2821                           
  2822                           ; BSR set to: 0
  2823  00153A  51A4               	movf	sprintf@exp& (0+255),w,b
  2824  00153C  ECAD  F00D         	call	_scale
  2825  001540  C036  F09C         	movff	?_scale,sprintf@tmpval
  2826  001544  C037  F09D         	movff	?_scale+1,sprintf@tmpval+1
  2827  001548  C038  F09E         	movff	?_scale+2,sprintf@tmpval+2
  2828                           
  2829                           ;doprnt.c: 1126: val = ((sizeof(double)== 3) ? _tdiv_to_l_(fval,tmpval.integ) : _div_to_
      +                          l_(fval,tmpval.integ));
  2830  00154C  C0A8  F013         	movff	sprintf@fval,__tdiv_to_l_@f1
  2831  001550  C0A9  F014         	movff	sprintf@fval+1,__tdiv_to_l_@f1+1
  2832  001554  C0AA  F015         	movff	sprintf@fval+2,__tdiv_to_l_@f1+2
  2833  001558  C09C  F016         	movff	sprintf@tmpval,__tdiv_to_l_@f2
  2834  00155C  C09D  F017         	movff	sprintf@tmpval+1,__tdiv_to_l_@f2+1
  2835  001560  C09E  F018         	movff	sprintf@tmpval+2,__tdiv_to_l_@f2+2
  2836  001564  ECBF  F013         	call	__tdiv_to_l_	;wreg free
  2837  001568  C013  F0A0         	movff	?__tdiv_to_l_,sprintf@val
  2838  00156C  C014  F0A1         	movff	?__tdiv_to_l_+1,sprintf@val+1
  2839  001570  C015  F0A2         	movff	?__tdiv_to_l_+2,sprintf@val+2
  2840  001574  C016  F0A3         	movff	?__tdiv_to_l_+3,sprintf@val+3
  2841                           
  2842                           ;doprnt.c: 1129: fval = 0.0;
  2843  001578  0E00               	movlw	0
  2844  00157A  0100               	movlb	0	; () banked
  2845  00157C  6FA8               	movwf	sprintf@fval& (0+255),b
  2846  00157E  0E00               	movlw	0
  2847  001580  6FA9               	movwf	(sprintf@fval+1)& (0+255),b
  2848  001582  0E00               	movlw	0
  2849  001584  6FAA               	movwf	(sprintf@fval+2)& (0+255),b
  2850                           
  2851                           ;doprnt.c: 1130: } else {
  2852  001586  D033               	goto	l412
  2853  001588                     l403:
  2854                           
  2855                           ;doprnt.c: 1131: val = (unsigned long)fval;
  2856                           
  2857                           ; BSR set to: 0
  2858  001588  C0A8  F03D         	movff	sprintf@fval,___fttol@f1
  2859  00158C  C0A9  F03E         	movff	sprintf@fval+1,___fttol@f1+1
  2860  001590  C0AA  F03F         	movff	sprintf@fval+2,___fttol@f1+2
  2861  001594  EC66  F015         	call	___fttol	;wreg free
  2862  001598  C03D  F0A0         	movff	?___fttol,sprintf@val
  2863  00159C  C03E  F0A1         	movff	?___fttol+1,sprintf@val+1
  2864  0015A0  C03F  F0A2         	movff	?___fttol+2,sprintf@val+2
  2865  0015A4  C040  F0A3         	movff	?___fttol+3,sprintf@val+3
  2866                           
  2867                           ;doprnt.c: 1132: fval -= (double)val;
  2868  0015A8  C0A8  F04C         	movff	sprintf@fval,___ftsub@f1
  2869  0015AC  C0A9  F04D         	movff	sprintf@fval+1,___ftsub@f1+1
  2870  0015B0  C0AA  F04E         	movff	sprintf@fval+2,___ftsub@f1+2
  2871  0015B4  C0A0  F01B         	movff	sprintf@val,___lltoft@c
  2872  0015B8  C0A1  F01C         	movff	sprintf@val+1,___lltoft@c+1
  2873  0015BC  C0A2  F01D         	movff	sprintf@val+2,___lltoft@c+2
  2874  0015C0  C0A3  F01E         	movff	sprintf@val+3,___lltoft@c+3
  2875  0015C4  ECD9  F018         	call	___lltoft	;wreg free
  2876  0015C8  C01B  F04F         	movff	?___lltoft,___ftsub@f2
  2877  0015CC  C01C  F050         	movff	?___lltoft+1,___ftsub@f2+1
  2878  0015D0  C01D  F051         	movff	?___lltoft+2,___ftsub@f2+2
  2879  0015D4  ECC5  F019         	call	___ftsub	;wreg free
  2880  0015D8  C04C  F0A8         	movff	?___ftsub,sprintf@fval
  2881  0015DC  C04D  F0A9         	movff	?___ftsub+1,sprintf@fval+1
  2882  0015E0  C04E  F0AA         	movff	?___ftsub+2,sprintf@fval+2
  2883                           
  2884                           ;doprnt.c: 1133: exp = 0;
  2885  0015E4  0E00               	movlw	0
  2886  0015E6  0100               	movlb	0	; () banked
  2887  0015E8  6FA5               	movwf	(sprintf@exp+1)& (0+255),b
  2888  0015EA  0E00               	movlw	0
  2889  0015EC  6FA4               	movwf	sprintf@exp& (0+255),b
  2890  0015EE                     l412:
  2891                           
  2892                           ; BSR set to: 0
  2893                           ;doprnt.c: 1134: }
  2894                           ;doprnt.c: 1136: for(c = 1 ; c != (sizeof dpowers/sizeof dpowers[0]) ; c++)
  2895                           
  2896                           ; BSR set to: 0
  2897  0015EE  0E01               	movlw	1
  2898  0015F0  6FAD               	movwf	sprintf@c& (0+255),b
  2899  0015F2                     l4556:
  2900                           
  2901                           ; BSR set to: 0
  2902  0015F2  0E0A               	movlw	10
  2903  0015F4  19AD               	xorwf	sprintf@c& (0+255),w,b
  2904  0015F6  B4D8               	btfsc	status,2,c
  2905  0015F8  D018               	goto	u4900
  2906                           
  2907                           ; BSR set to: 0
  2908                           ;doprnt.c: 1137: if(val < dpowers[c])
  2909                           
  2910                           ; BSR set to: 0
  2911                           
  2912                           ; BSR set to: 0
  2913  0015FA  51AD               	movf	sprintf@c& (0+255),w,b
  2914  0015FC  0D04               	mullw	4
  2915  0015FE  0E01               	movlw	low _dpowers
  2916  001600  24F3               	addwf	prodl,w,c
  2917  001602  6EF6               	movwf	tblptrl,c
  2918  001604  0E10               	movlw	high _dpowers
  2919  001606  20F4               	addwfc	prodh,w,c
  2920  001608  6EF7               	movwf	tblptrh,c
  2921  00160A                     	if	0	;There are less than 3 active tblptr bytes
  2922  00160A                     	endif
  2923  00160A  0009               	tblrd		*+
  2924  00160C  50F5               	movf	tablat,w,c
  2925  00160E  5DA0               	subwf	sprintf@val& (0+255),w,b
  2926  001610  0009               	tblrd		*+
  2927  001612  50F5               	movf	tablat,w,c
  2928  001614  59A1               	subwfb	(sprintf@val+1)& (0+255),w,b
  2929  001616  0009               	tblrd		*+
  2930  001618  50F5               	movf	tablat,w,c
  2931  00161A  59A2               	subwfb	(sprintf@val+2)& (0+255),w,b
  2932  00161C  0009               	tblrd		*+
  2933  00161E  50F5               	movf	tablat,w,c
  2934  001620  59A3               	subwfb	(sprintf@val+3)& (0+255),w,b
  2935  001622  A0D8               	btfss	status,0,c
  2936  001624  D002               	goto	u4900
  2937                           
  2938                           ; BSR set to: 0
  2939                           
  2940                           ; BSR set to: 0
  2941                           
  2942                           ; BSR set to: 0
  2943                           ;doprnt.c: 1138: break;
  2944  001626  2BAD               	incf	sprintf@c& (0+255),f,b
  2945  001628  D7E4               	goto	l4556
  2946  00162A                     u4900:
  2947                           
  2948                           ; BSR set to: 0
  2949                           ;doprnt.c: 1142: width -= prec + c + exp;
  2950                           
  2951                           ; BSR set to: 0
  2952  00162A  C0AD  F08B         	movff	sprintf@c,??_sprintf
  2953  00162E  6B8C               	clrf	(??_sprintf+1)& (0+255),b
  2954  001630  BF8B               	btfsc	??_sprintf& (0+255),7,b
  2955  001632  078C               	decf	(??_sprintf+1)& (0+255),f,b
  2956  001634  51AB               	movf	sprintf@prec& (0+255),w,b
  2957  001636  278B               	addwf	??_sprintf& (0+255),f,b
  2958  001638  51AC               	movf	(sprintf@prec+1)& (0+255),w,b
  2959  00163A  238C               	addwfc	(??_sprintf+1)& (0+255),f,b
  2960  00163C  51A4               	movf	sprintf@exp& (0+255),w,b
  2961  00163E  278B               	addwf	??_sprintf& (0+255),f,b
  2962  001640  51A5               	movf	(sprintf@exp+1)& (0+255),w,b
  2963  001642  238C               	addwfc	(??_sprintf+1)& (0+255),f,b
  2964  001644  518B               	movf	??_sprintf& (0+255),w,b
  2965  001646  5FA6               	subwf	sprintf@width& (0+255),f,b
  2966  001648  518C               	movf	(??_sprintf+1)& (0+255),w,b
  2967  00164A  5BA7               	subwfb	(sprintf@width+1)& (0+255),f,b
  2968                           
  2969                           ;doprnt.c: 1143: if(
  2970                           ;doprnt.c: 1147: prec)
  2971  00164C  51AB               	movf	sprintf@prec& (0+255),w,b
  2972  00164E  11AC               	iorwf	(sprintf@prec+1)& (0+255),w,b
  2973  001650  B4D8               	btfsc	status,2,c
  2974  001652  D003               	goto	l416
  2975                           
  2976                           ; BSR set to: 0
  2977                           ;doprnt.c: 1148: width--;
  2978  001654  07A6               	decf	sprintf@width& (0+255),f,b
  2979  001656  A0D8               	btfss	status,0,c
  2980  001658  07A7               	decf	(sprintf@width+1)& (0+255),f,b
  2981  00165A                     l416:
  2982                           
  2983                           ; BSR set to: 0
  2984                           ;doprnt.c: 1149: if(flag & 0x03)
  2985                           
  2986                           ; BSR set to: 0
  2987  00165A  0E03               	movlw	3
  2988  00165C  159A               	andwf	sprintf@flag& (0+255),w,b
  2989  00165E  6F8B               	movwf	??_sprintf& (0+255),b
  2990  001660  0E00               	movlw	0
  2991  001662  159B               	andwf	(sprintf@flag+1)& (0+255),w,b
  2992  001664  6F8C               	movwf	(??_sprintf+1)& (0+255),b
  2993  001666  518B               	movf	??_sprintf& (0+255),w,b
  2994  001668  118C               	iorwf	(??_sprintf+1)& (0+255),w,b
  2995  00166A  B4D8               	btfsc	status,2,c
  2996  00166C  D00C               	goto	l418
  2997  00166E  D008               	goto	l4580
  2998  001670                     l4576:
  2999                           
  3000                           ; BSR set to: 0
  3001                           ;doprnt.c: 1181: ((*sp++ = (' ')));
  3002  001670  C080  FFD9         	movff	sprintf@sp,fsr2l
  3003  001674  C081  FFDA         	movff	sprintf@sp+1,fsr2h
  3004  001678  0E20               	movlw	32
  3005  00167A  6EDF               	movwf	indf2,c
  3006                           
  3007                           ; BSR set to: 0
  3008  00167C  4B80               	infsnz	sprintf@sp& (0+255),f,b
  3009  00167E  2B81               	incf	(sprintf@sp+1)& (0+255),f,b
  3010  001680                     l4580:
  3011                           
  3012                           ; BSR set to: 0
  3013                           ;doprnt.c: 1182: width--;
  3014  001680  07A6               	decf	sprintf@width& (0+255),f,b
  3015  001682  A0D8               	btfss	status,0,c
  3016  001684  07A7               	decf	(sprintf@width+1)& (0+255),f,b
  3017  001686                     l418:
  3018                           
  3019                           ; BSR set to: 0
  3020                           
  3021                           ; BSR set to: 0
  3022  001686  BFA7               	btfsc	(sprintf@width+1)& (0+255),7,b
  3023  001688  D005               	goto	u4930
  3024  00168A  51A7               	movf	(sprintf@width+1)& (0+255),w,b
  3025  00168C  E1F1               	bnz	l4576
  3026  00168E  05A6               	decf	sprintf@width& (0+255),w,b
  3027  001690  B0D8               	btfsc	status,0,c
  3028  001692  D7EE               	goto	l419
  3029  001694                     u4930:
  3030                           
  3031                           ; BSR set to: 0
  3032                           ;doprnt.c: 1183: }
  3033                           ;doprnt.c: 1188: if(flag & 0x03)
  3034                           
  3035                           ; BSR set to: 0
  3036  001694  0E03               	movlw	3
  3037  001696  159A               	andwf	sprintf@flag& (0+255),w,b
  3038  001698  6F8B               	movwf	??_sprintf& (0+255),b
  3039  00169A  0E00               	movlw	0
  3040  00169C  159B               	andwf	(sprintf@flag+1)& (0+255),w,b
  3041  00169E  6F8C               	movwf	(??_sprintf+1)& (0+255),b
  3042  0016A0  518B               	movf	??_sprintf& (0+255),w,b
  3043  0016A2  118C               	iorwf	(??_sprintf+1)& (0+255),w,b
  3044  0016A4  B4D8               	btfsc	status,2,c
  3045  0016A6  D050               	goto	l422
  3046                           
  3047                           ; BSR set to: 0
  3048                           ;doprnt.c: 1190: ((*sp++ = ('-')));
  3049  0016A8  C080  FFD9         	movff	sprintf@sp,fsr2l
  3050  0016AC  C081  FFDA         	movff	sprintf@sp+1,fsr2h
  3051  0016B0  0E2D               	movlw	45
  3052  0016B2  D047               	goto	L4
  3053  0016B4                     
  3054                           ; BSR set to: 0
  3055                           ;doprnt.c: 1200: {
  3056                           ;doprnt.c: 1201: tmpval.vd = val/dpowers[c];
  3057                           
  3058                           ; BSR set to: 0
  3059  0016B4  C0A0  F013         	movff	sprintf@val,___lldiv@dividend
  3060  0016B8  C0A1  F014         	movff	sprintf@val+1,___lldiv@dividend+1
  3061  0016BC  C0A2  F015         	movff	sprintf@val+2,___lldiv@dividend+2
  3062  0016C0  C0A3  F016         	movff	sprintf@val+3,___lldiv@dividend+3
  3063  0016C4  51AD               	movf	sprintf@c& (0+255),w,b
  3064  0016C6  0D04               	mullw	4
  3065  0016C8  0E01               	movlw	low _dpowers
  3066  0016CA  24F3               	addwf	prodl,w,c
  3067  0016CC  6EF6               	movwf	tblptrl,c
  3068  0016CE  0E10               	movlw	high _dpowers
  3069  0016D0  20F4               	addwfc	prodh,w,c
  3070  0016D2  6EF7               	movwf	tblptrh,c
  3071  0016D4                     	if	0	;There are less than 3 active tblptr bytes
  3072  0016D4                     	endif
  3073  0016D4  0009               	tblrd		*+
  3074  0016D6  CFF5 F017          	movff	tablat,___lldiv@divisor
  3075  0016DA  0009               	tblrd		*+
  3076  0016DC  CFF5 F018          	movff	tablat,___lldiv@divisor+1
  3077  0016E0  0009               	tblrd		*+
  3078  0016E2  CFF5 F019          	movff	tablat,___lldiv@divisor+2
  3079  0016E6  000A               	tblrd		*-
  3080  0016E8  CFF5 F01A          	movff	tablat,___lldiv@divisor+3
  3081  0016EC  ECFC  F017         	call	___lldiv	;wreg free
  3082  0016F0  C013  F09C         	movff	?___lldiv,sprintf@tmpval
  3083  0016F4  C014  F09D         	movff	?___lldiv+1,sprintf@tmpval+1
  3084  0016F8  C015  F09E         	movff	?___lldiv+2,sprintf@tmpval+2
  3085  0016FC  C016  F09F         	movff	?___lldiv+3,sprintf@tmpval+3
  3086                           
  3087                           ;doprnt.c: 1202: tmpval.vd %= 10;
  3088  001700  C09C  F020         	movff	sprintf@tmpval,___llmod@dividend
  3089  001704  C09D  F021         	movff	sprintf@tmpval+1,___llmod@dividend+1
  3090  001708  C09E  F022         	movff	sprintf@tmpval+2,___llmod@dividend+2
  3091  00170C  C09F  F023         	movff	sprintf@tmpval+3,___llmod@dividend+3
  3092  001710  0E0A               	movlw	10
  3093  001712  6E24               	movwf	___llmod@divisor,c
  3094  001714  0E00               	movlw	0
  3095  001716  6E25               	movwf	___llmod@divisor+1,c
  3096  001718  0E00               	movlw	0
  3097  00171A  6E26               	movwf	___llmod@divisor+2,c
  3098  00171C  0E00               	movlw	0
  3099  00171E  6E27               	movwf	___llmod@divisor+3,c
  3100  001720  EC75  F018         	call	___llmod	;wreg free
  3101  001724  C020  F09C         	movff	?___llmod,sprintf@tmpval
  3102  001728  C021  F09D         	movff	?___llmod+1,sprintf@tmpval+1
  3103  00172C  C022  F09E         	movff	?___llmod+2,sprintf@tmpval+2
  3104  001730  C023  F09F         	movff	?___llmod+3,sprintf@tmpval+3
  3105                           
  3106                           ;doprnt.c: 1203: ((*sp++ = ('0' + tmpval.vd)));
  3107  001734  0100               	movlb	0	; () banked
  3108  001736  519C               	movf	sprintf@tmpval& (0+255),w,b
  3109  001738  0F30               	addlw	48
  3110  00173A  C080  FFD9         	movff	sprintf@sp,fsr2l
  3111  00173E  C081  FFDA         	movff	sprintf@sp+1,fsr2h
  3112  001742                     L4:
  3113  001742  6EDF               	movwf	indf2,c
  3114                           
  3115                           ; BSR set to: 0
  3116  001744  4B80               	infsnz	sprintf@sp& (0+255),f,b
  3117  001746  2B81               	incf	(sprintf@sp+1)& (0+255),f,b
  3118  001748                     l422:
  3119                           
  3120                           ; BSR set to: 0
  3121                           
  3122                           ; BSR set to: 0
  3123  001748  07AD               	decf	sprintf@c& (0+255),f,b
  3124  00174A  29AD               	incf	sprintf@c& (0+255),w,b
  3125  00174C  B4D8               	btfsc	status,2,c
  3126  00174E  D00C               	goto	l425
  3127  001750  D7B1               	goto	l423
  3128  001752                     l4600:
  3129                           
  3130                           ; BSR set to: 0
  3131                           ;doprnt.c: 1208: ((*sp++ = ('0')));
  3132  001752  C080  FFD9         	movff	sprintf@sp,fsr2l
  3133  001756  C081  FFDA         	movff	sprintf@sp+1,fsr2h
  3134  00175A  0E30               	movlw	48
  3135  00175C  6EDF               	movwf	indf2,c
  3136                           
  3137                           ; BSR set to: 0
  3138  00175E  4B80               	infsnz	sprintf@sp& (0+255),f,b
  3139  001760  2B81               	incf	(sprintf@sp+1)& (0+255),f,b
  3140                           
  3141                           ; BSR set to: 0
  3142                           ;doprnt.c: 1209: exp--;
  3143  001762  07A4               	decf	sprintf@exp& (0+255),f,b
  3144  001764  A0D8               	btfss	status,0,c
  3145  001766  07A5               	decf	(sprintf@exp+1)& (0+255),f,b
  3146  001768                     l425:
  3147                           
  3148                           ; BSR set to: 0
  3149                           
  3150                           ; BSR set to: 0
  3151  001768  BFA5               	btfsc	(sprintf@exp+1)& (0+255),7,b
  3152  00176A  D005               	goto	u4960
  3153  00176C  51A5               	movf	(sprintf@exp+1)& (0+255),w,b
  3154  00176E  E1F1               	bnz	l4600
  3155  001770  05A4               	decf	sprintf@exp& (0+255),w,b
  3156  001772  B0D8               	btfsc	status,0,c
  3157  001774  D7EE               	goto	l426
  3158  001776                     u4960:
  3159                           
  3160                           ; BSR set to: 0
  3161                           ;doprnt.c: 1210: }
  3162                           ;doprnt.c: 1211: if(prec > (int)((sizeof dpowers/sizeof dpowers[0])-2))
  3163                           
  3164                           ; BSR set to: 0
  3165  001776  BFAC               	btfsc	(sprintf@prec+1)& (0+255),7,b
  3166  001778  D009               	goto	l428
  3167  00177A  51AC               	movf	(sprintf@prec+1)& (0+255),w,b
  3168  00177C  E104               	bnz	u4970
  3169  00177E  0E09               	movlw	9
  3170  001780  5DAB               	subwf	sprintf@prec& (0+255),w,b
  3171  001782  A0D8               	btfss	status,0,c
  3172  001784  D003               	goto	l428
  3173  001786                     u4970:
  3174                           
  3175                           ; BSR set to: 0
  3176                           ;doprnt.c: 1212: c = (sizeof dpowers/sizeof dpowers[0])-2;
  3177  001786  0E08               	movlw	8
  3178  001788  6FAD               	movwf	sprintf@c& (0+255),b
  3179  00178A  D002               	goto	l429
  3180  00178C                     l428:
  3181                           
  3182                           ; BSR set to: 0
  3183                           ;doprnt.c: 1213: else
  3184                           ;doprnt.c: 1214: c = prec;
  3185  00178C  C0AB  F0AD         	movff	sprintf@prec,sprintf@c
  3186  001790                     l429:
  3187                           
  3188                           ; BSR set to: 0
  3189                           ;doprnt.c: 1215: prec -= c;
  3190                           
  3191                           ; BSR set to: 0
  3192  001790  51AD               	movf	sprintf@c& (0+255),w,b
  3193  001792  5FAB               	subwf	sprintf@prec& (0+255),f,b
  3194  001794  0E00               	movlw	0
  3195  001796  BFAD               	btfsc	sprintf@c& (0+255),7,b
  3196  001798  0EFF               	movlw	255
  3197  00179A  5BAC               	subwfb	(sprintf@prec+1)& (0+255),f,b
  3198                           
  3199                           ; BSR set to: 0
  3200                           ;doprnt.c: 1219: if(c)
  3201  00179C  51AD               	movf	sprintf@c& (0+255),w,b
  3202  00179E  B4D8               	btfsc	status,2,c
  3203  0017A0  D008               	goto	l430
  3204                           
  3205                           ; BSR set to: 0
  3206                           ;doprnt.c: 1221: ((*sp++ = ('.')));
  3207  0017A2  C080  FFD9         	movff	sprintf@sp,fsr2l
  3208  0017A6  C081  FFDA         	movff	sprintf@sp+1,fsr2h
  3209  0017AA  0E2E               	movlw	46
  3210  0017AC  6EDF               	movwf	indf2,c
  3211                           
  3212                           ; BSR set to: 0
  3213  0017AE  4B80               	infsnz	sprintf@sp& (0+255),f,b
  3214  0017B0  2B81               	incf	(sprintf@sp+1)& (0+255),f,b
  3215  0017B2                     l430:
  3216                           
  3217                           ; BSR set to: 0
  3218                           ;doprnt.c: 1227: val = (long)(fval * scale(c));
  3219                           
  3220                           ; BSR set to: 0
  3221  0017B2  51AD               	movf	sprintf@c& (0+255),w,b
  3222  0017B4  ECAD  F00D         	call	_scale
  3223  0017B8  C036  F091         	movff	?_scale,_sprintf$1800
  3224  0017BC  C037  F092         	movff	?_scale+1,_sprintf$1800+1
  3225  0017C0  C038  F093         	movff	?_scale+2,_sprintf$1800+2
  3226                           
  3227                           ;doprnt.c: 1227: val = (long)(fval * scale(c));
  3228  0017C4  C0A8  F02A         	movff	sprintf@fval,___ftmul@f2
  3229  0017C8  C0A9  F02B         	movff	sprintf@fval+1,___ftmul@f2+1
  3230  0017CC  C0AA  F02C         	movff	sprintf@fval+2,___ftmul@f2+2
  3231  0017D0  C091  F027         	movff	_sprintf$1800,___ftmul@f1
  3232  0017D4  C092  F028         	movff	_sprintf$1800+1,___ftmul@f1+1
  3233  0017D8  C093  F029         	movff	_sprintf$1800+2,___ftmul@f1+2
  3234  0017DC  ECEC  F014         	call	___ftmul	;wreg free
  3235  0017E0  C027  F03D         	movff	?___ftmul,___fttol@f1
  3236  0017E4  C028  F03E         	movff	?___ftmul+1,___fttol@f1+1
  3237  0017E8  C029  F03F         	movff	?___ftmul+2,___fttol@f1+2
  3238  0017EC  EC66  F015         	call	___fttol	;wreg free
  3239  0017F0  C03D  F0A0         	movff	?___fttol,sprintf@val
  3240  0017F4  C03E  F0A1         	movff	?___fttol+1,sprintf@val+1
  3241  0017F8  C03F  F0A2         	movff	?___fttol+2,sprintf@val+2
  3242  0017FC  C040  F0A3         	movff	?___fttol+3,sprintf@val+3
  3243                           
  3244                           ;doprnt.c: 1228: while(c--) {
  3245  001800  D071               	goto	l431
  3246  001802                     
  3247                           ;doprnt.c: 1229: tmpval.vd = val/dpowers[c];
  3248  001802  C0A0  F013         	movff	sprintf@val,___lldiv@dividend
  3249  001806  C0A1  F014         	movff	sprintf@val+1,___lldiv@dividend+1
  3250  00180A  C0A2  F015         	movff	sprintf@val+2,___lldiv@dividend+2
  3251  00180E  C0A3  F016         	movff	sprintf@val+3,___lldiv@dividend+3
  3252  001812  0100               	movlb	0	; () banked
  3253  001814  51AD               	movf	sprintf@c& (0+255),w,b
  3254  001816  0D04               	mullw	4
  3255  001818  0E01               	movlw	low _dpowers
  3256  00181A  24F3               	addwf	prodl,w,c
  3257  00181C  6EF6               	movwf	tblptrl,c
  3258  00181E  0E10               	movlw	high _dpowers
  3259  001820  20F4               	addwfc	prodh,w,c
  3260  001822  6EF7               	movwf	tblptrh,c
  3261  001824                     	if	0	;There are less than 3 active tblptr bytes
  3262  001824                     	endif
  3263  001824  0009               	tblrd		*+
  3264  001826  CFF5 F017          	movff	tablat,___lldiv@divisor
  3265  00182A  0009               	tblrd		*+
  3266  00182C  CFF5 F018          	movff	tablat,___lldiv@divisor+1
  3267  001830  0009               	tblrd		*+
  3268  001832  CFF5 F019          	movff	tablat,___lldiv@divisor+2
  3269  001836  000A               	tblrd		*-
  3270  001838  CFF5 F01A          	movff	tablat,___lldiv@divisor+3
  3271  00183C  ECFC  F017         	call	___lldiv	;wreg free
  3272  001840  C013  F09C         	movff	?___lldiv,sprintf@tmpval
  3273  001844  C014  F09D         	movff	?___lldiv+1,sprintf@tmpval+1
  3274  001848  C015  F09E         	movff	?___lldiv+2,sprintf@tmpval+2
  3275  00184C  C016  F09F         	movff	?___lldiv+3,sprintf@tmpval+3
  3276                           
  3277                           ;doprnt.c: 1230: tmpval.vd %= 10;
  3278  001850  C09C  F020         	movff	sprintf@tmpval,___llmod@dividend
  3279  001854  C09D  F021         	movff	sprintf@tmpval+1,___llmod@dividend+1
  3280  001858  C09E  F022         	movff	sprintf@tmpval+2,___llmod@dividend+2
  3281  00185C  C09F  F023         	movff	sprintf@tmpval+3,___llmod@dividend+3
  3282  001860  0E0A               	movlw	10
  3283  001862  6E24               	movwf	___llmod@divisor,c
  3284  001864  0E00               	movlw	0
  3285  001866  6E25               	movwf	___llmod@divisor+1,c
  3286  001868  0E00               	movlw	0
  3287  00186A  6E26               	movwf	___llmod@divisor+2,c
  3288  00186C  0E00               	movlw	0
  3289  00186E  6E27               	movwf	___llmod@divisor+3,c
  3290  001870  EC75  F018         	call	___llmod	;wreg free
  3291  001874  C020  F09C         	movff	?___llmod,sprintf@tmpval
  3292  001878  C021  F09D         	movff	?___llmod+1,sprintf@tmpval+1
  3293  00187C  C022  F09E         	movff	?___llmod+2,sprintf@tmpval+2
  3294  001880  C023  F09F         	movff	?___llmod+3,sprintf@tmpval+3
  3295                           
  3296                           ;doprnt.c: 1231: ((*sp++ = ('0' + tmpval.vd)));
  3297  001884  0100               	movlb	0	; () banked
  3298  001886  519C               	movf	sprintf@tmpval& (0+255),w,b
  3299  001888  0F30               	addlw	48
  3300  00188A  C080  FFD9         	movff	sprintf@sp,fsr2l
  3301  00188E  C081  FFDA         	movff	sprintf@sp+1,fsr2h
  3302  001892  6EDF               	movwf	indf2,c
  3303                           
  3304                           ; BSR set to: 0
  3305  001894  4B80               	infsnz	sprintf@sp& (0+255),f,b
  3306  001896  2B81               	incf	(sprintf@sp+1)& (0+255),f,b
  3307                           
  3308                           ; BSR set to: 0
  3309                           ;doprnt.c: 1232: val %= dpowers[c];
  3310  001898  C0A0  F020         	movff	sprintf@val,___llmod@dividend
  3311  00189C  C0A1  F021         	movff	sprintf@val+1,___llmod@dividend+1
  3312  0018A0  C0A2  F022         	movff	sprintf@val+2,___llmod@dividend+2
  3313  0018A4  C0A3  F023         	movff	sprintf@val+3,___llmod@dividend+3
  3314  0018A8  51AD               	movf	sprintf@c& (0+255),w,b
  3315  0018AA  0D04               	mullw	4
  3316  0018AC  0E01               	movlw	low _dpowers
  3317  0018AE  24F3               	addwf	prodl,w,c
  3318  0018B0  6EF6               	movwf	tblptrl,c
  3319  0018B2  0E10               	movlw	high _dpowers
  3320  0018B4  20F4               	addwfc	prodh,w,c
  3321  0018B6  6EF7               	movwf	tblptrh,c
  3322  0018B8                     	if	0	;There are less than 3 active tblptr bytes
  3323  0018B8                     	endif
  3324  0018B8  0009               	tblrd		*+
  3325  0018BA  CFF5 F024          	movff	tablat,___llmod@divisor
  3326  0018BE  0009               	tblrd		*+
  3327  0018C0  CFF5 F025          	movff	tablat,___llmod@divisor+1
  3328  0018C4  0009               	tblrd		*+
  3329  0018C6  CFF5 F026          	movff	tablat,___llmod@divisor+2
  3330  0018CA  000A               	tblrd		*-
  3331  0018CC  CFF5 F027          	movff	tablat,___llmod@divisor+3
  3332  0018D0  EC75  F018         	call	___llmod	;wreg free
  3333  0018D4  C020  F0A0         	movff	?___llmod,sprintf@val
  3334  0018D8  C021  F0A1         	movff	?___llmod+1,sprintf@val+1
  3335  0018DC  C022  F0A2         	movff	?___llmod+2,sprintf@val+2
  3336  0018E0  C023  F0A3         	movff	?___llmod+3,sprintf@val+3
  3337  0018E4                     l431:
  3338  0018E4  0100               	movlb	0	; () banked
  3339  0018E6  07AD               	decf	sprintf@c& (0+255),f,b
  3340  0018E8  29AD               	incf	sprintf@c& (0+255),w,b
  3341  0018EA  B4D8               	btfsc	status,2,c
  3342  0018EC  D00C               	goto	l434
  3343  0018EE  D789               	goto	l432
  3344  0018F0                     
  3345                           ; BSR set to: 0
  3346                           ;doprnt.c: 1236: ((*sp++ = ('0')));
  3347                           
  3348                           ; BSR set to: 0
  3349  0018F0  C080  FFD9         	movff	sprintf@sp,fsr2l
  3350  0018F4  C081  FFDA         	movff	sprintf@sp+1,fsr2h
  3351  0018F8  0E30               	movlw	48
  3352  0018FA  6EDF               	movwf	indf2,c
  3353                           
  3354                           ; BSR set to: 0
  3355  0018FC  4B80               	infsnz	sprintf@sp& (0+255),f,b
  3356  0018FE  2B81               	incf	(sprintf@sp+1)& (0+255),f,b
  3357                           
  3358                           ; BSR set to: 0
  3359                           ;doprnt.c: 1237: prec--;
  3360  001900  07AB               	decf	sprintf@prec& (0+255),f,b
  3361  001902  A0D8               	btfss	status,0,c
  3362  001904  07AC               	decf	(sprintf@prec+1)& (0+255),f,b
  3363  001906                     l434:
  3364                           
  3365                           ; BSR set to: 0
  3366                           
  3367                           ; BSR set to: 0
  3368  001906  51AB               	movf	sprintf@prec& (0+255),w,b
  3369  001908  11AC               	iorwf	(sprintf@prec+1)& (0+255),w,b
  3370  00190A  B4D8               	btfsc	status,2,c
  3371  00190C  D112               	goto	u5170
  3372  00190E  D7F0               	goto	l435
  3373  001910                     l394:
  3374                           
  3375                           ; BSR set to: 0
  3376                           ;doprnt.c: 1246: }
  3377                           ;doprnt.c: 1253: {
  3378                           ;doprnt.c: 1259: val = (long)(*(int *)__va_arg((*(int **)ap), (int)0));
  3379                           
  3380                           ; BSR set to: 0
  3381  001910  C096  FFD9         	movff	sprintf@ap,fsr2l
  3382  001914  C097  FFDA         	movff	sprintf@ap+1,fsr2h
  3383  001918  CFDE F0A0          	movff	postinc2,sprintf@val
  3384  00191C  CFDD F0A1          	movff	postdec2,sprintf@val+1
  3385  001920  0E00               	movlw	0
  3386  001922  BFA1               	btfsc	(sprintf@val+1)& (0+255),7,b
  3387  001924  0EFF               	movlw	-1
  3388  001926  6FA2               	movwf	(sprintf@val+2)& (0+255),b
  3389  001928  6FA3               	movwf	(sprintf@val+3)& (0+255),b
  3390                           
  3391                           ; BSR set to: 0
  3392  00192A  0E02               	movlw	2
  3393  00192C  2796               	addwf	sprintf@ap& (0+255),f,b
  3394  00192E  0E00               	movlw	0
  3395  001930  2397               	addwfc	(sprintf@ap+1)& (0+255),f,b
  3396                           
  3397                           ; BSR set to: 0
  3398                           ;doprnt.c: 1261: if((long)val < 0) {
  3399  001932  AFA3               	btfss	(sprintf@val+3)& (0+255),7,b
  3400  001934  D00A               	goto	l437
  3401                           
  3402                           ; BSR set to: 0
  3403                           ;doprnt.c: 1262: flag |= 0x03;
  3404  001936  0E03               	movlw	3
  3405  001938  139A               	iorwf	sprintf@flag& (0+255),f,b
  3406                           
  3407                           ; BSR set to: 0
  3408                           ;doprnt.c: 1263: val = -val;
  3409  00193A  1FA3               	comf	(sprintf@val+3)& (0+255),f,b
  3410  00193C  1FA2               	comf	(sprintf@val+2)& (0+255),f,b
  3411  00193E  1FA1               	comf	(sprintf@val+1)& (0+255),f,b
  3412  001940  6DA0               	negf	sprintf@val& (0+255),b
  3413  001942  0E00               	movlw	0
  3414  001944  23A1               	addwfc	(sprintf@val+1)& (0+255),f,b
  3415  001946  23A2               	addwfc	(sprintf@val+2)& (0+255),f,b
  3416  001948  23A3               	addwfc	(sprintf@val+3)& (0+255),f,b
  3417  00194A                     l437:
  3418                           
  3419                           ; BSR set to: 0
  3420                           ;doprnt.c: 1264: }
  3421                           ;doprnt.c: 1266: }
  3422                           ;doprnt.c: 1290: if(prec == 0 && val == 0)
  3423                           
  3424                           ; BSR set to: 0
  3425  00194A  51AB               	movf	sprintf@prec& (0+255),w,b
  3426  00194C  11AC               	iorwf	(sprintf@prec+1)& (0+255),w,b
  3427  00194E  A4D8               	btfss	status,2,c
  3428  001950  D008               	goto	l438
  3429                           
  3430                           ; BSR set to: 0
  3431  001952  51A0               	movf	sprintf@val& (0+255),w,b
  3432  001954  11A1               	iorwf	(sprintf@val+1)& (0+255),w,b
  3433  001956  11A2               	iorwf	(sprintf@val+2)& (0+255),w,b
  3434  001958  11A3               	iorwf	(sprintf@val+3)& (0+255),w,b
  3435  00195A  A4D8               	btfss	status,2,c
  3436  00195C  D002               	goto	l438
  3437                           
  3438                           ; BSR set to: 0
  3439                           ;doprnt.c: 1291: prec++;
  3440  00195E  4BAB               	infsnz	sprintf@prec& (0+255),f,b
  3441  001960  2BAC               	incf	(sprintf@prec+1)& (0+255),f,b
  3442  001962                     l438:
  3443                           
  3444                           ; BSR set to: 0
  3445                           ;doprnt.c: 1305: for(c = 1 ; c != sizeof dpowers/sizeof dpowers[0] ; c++)
  3446                           
  3447                           ; BSR set to: 0
  3448  001962  0E01               	movlw	1
  3449  001964  6FAD               	movwf	sprintf@c& (0+255),b
  3450  001966                     l4662:
  3451                           
  3452                           ; BSR set to: 0
  3453  001966  0E0A               	movlw	10
  3454  001968  19AD               	xorwf	sprintf@c& (0+255),w,b
  3455  00196A  B4D8               	btfsc	status,2,c
  3456  00196C  D018               	goto	u5060
  3457                           
  3458                           ; BSR set to: 0
  3459                           ;doprnt.c: 1306: if(val < dpowers[c])
  3460                           
  3461                           ; BSR set to: 0
  3462                           
  3463                           ; BSR set to: 0
  3464  00196E  51AD               	movf	sprintf@c& (0+255),w,b
  3465  001970  0D04               	mullw	4
  3466  001972  0E01               	movlw	low _dpowers
  3467  001974  24F3               	addwf	prodl,w,c
  3468  001976  6EF6               	movwf	tblptrl,c
  3469  001978  0E10               	movlw	high _dpowers
  3470  00197A  20F4               	addwfc	prodh,w,c
  3471  00197C  6EF7               	movwf	tblptrh,c
  3472  00197E                     	if	0	;There are less than 3 active tblptr bytes
  3473  00197E                     	endif
  3474  00197E  0009               	tblrd		*+
  3475  001980  50F5               	movf	tablat,w,c
  3476  001982  5DA0               	subwf	sprintf@val& (0+255),w,b
  3477  001984  0009               	tblrd		*+
  3478  001986  50F5               	movf	tablat,w,c
  3479  001988  59A1               	subwfb	(sprintf@val+1)& (0+255),w,b
  3480  00198A  0009               	tblrd		*+
  3481  00198C  50F5               	movf	tablat,w,c
  3482  00198E  59A2               	subwfb	(sprintf@val+2)& (0+255),w,b
  3483  001990  0009               	tblrd		*+
  3484  001992  50F5               	movf	tablat,w,c
  3485  001994  59A3               	subwfb	(sprintf@val+3)& (0+255),w,b
  3486  001996  A0D8               	btfss	status,0,c
  3487  001998  D002               	goto	u5060
  3488                           
  3489                           ; BSR set to: 0
  3490                           
  3491                           ; BSR set to: 0
  3492                           
  3493                           ; BSR set to: 0
  3494                           ;doprnt.c: 1307: break;
  3495  00199A  2BAD               	incf	sprintf@c& (0+255),f,b
  3496  00199C  D7E4               	goto	l4662
  3497  00199E                     u5060:
  3498                           
  3499                           ; BSR set to: 0
  3500                           ;doprnt.c: 1339: if(c < prec)
  3501                           
  3502                           ; BSR set to: 0
  3503  00199E  0E80               	movlw	128
  3504  0019A0  BFAD               	btfsc	sprintf@c& (0+255),7,b
  3505  0019A2  0E7F               	movlw	127
  3506  0019A4  6F8B               	movwf	??_sprintf& (0+255),b
  3507  0019A6  51AB               	movf	sprintf@prec& (0+255),w,b
  3508  0019A8  5DAD               	subwf	sprintf@c& (0+255),w,b
  3509  0019AA  51AC               	movf	(sprintf@prec+1)& (0+255),w,b
  3510  0019AC  0A80               	xorlw	128
  3511  0019AE  598B               	subwfb	??_sprintf& (0+255),w,b
  3512  0019B0  B0D8               	btfsc	status,0,c
  3513  0019B2  D003               	goto	l442
  3514                           
  3515                           ; BSR set to: 0
  3516                           ;doprnt.c: 1340: c = prec;
  3517  0019B4  C0AB  F0AD         	movff	sprintf@prec,sprintf@c
  3518  0019B8  D010               	goto	l444
  3519  0019BA                     l442:
  3520                           
  3521                           ; BSR set to: 0
  3522                           ;doprnt.c: 1341: else if(prec < c)
  3523                           
  3524                           ; BSR set to: 0
  3525  0019BA  51AC               	movf	(sprintf@prec+1)& (0+255),w,b
  3526  0019BC  0A80               	xorlw	128
  3527  0019BE  6F8B               	movwf	??_sprintf& (0+255),b
  3528  0019C0  51AD               	movf	sprintf@c& (0+255),w,b
  3529  0019C2  5DAB               	subwf	sprintf@prec& (0+255),w,b
  3530  0019C4  0E80               	movlw	128
  3531  0019C6  BFAD               	btfsc	sprintf@c& (0+255),7,b
  3532  0019C8  0E7F               	movlw	127
  3533  0019CA  598B               	subwfb	??_sprintf& (0+255),w,b
  3534  0019CC  B0D8               	btfsc	status,0,c
  3535  0019CE  D005               	goto	l444
  3536                           
  3537                           ; BSR set to: 0
  3538                           ;doprnt.c: 1342: prec = c;
  3539  0019D0  51AD               	movf	sprintf@c& (0+255),w,b
  3540  0019D2  6FAB               	movwf	sprintf@prec& (0+255),b
  3541  0019D4  6BAC               	clrf	(sprintf@prec+1)& (0+255),b
  3542  0019D6  BFAB               	btfsc	sprintf@prec& (0+255),7,b
  3543  0019D8  07AC               	decf	(sprintf@prec+1)& (0+255),f,b
  3544  0019DA                     l444:
  3545                           
  3546                           ; BSR set to: 0
  3547                           ;doprnt.c: 1345: if(width && flag & 0x03)
  3548                           
  3549                           ; BSR set to: 0
  3550                           
  3551                           ; BSR set to: 0
  3552  0019DA  51A6               	movf	sprintf@width& (0+255),w,b
  3553  0019DC  11A7               	iorwf	(sprintf@width+1)& (0+255),w,b
  3554  0019DE  B4D8               	btfsc	status,2,c
  3555  0019E0  D00D               	goto	l445
  3556                           
  3557                           ; BSR set to: 0
  3558  0019E2  0E03               	movlw	3
  3559  0019E4  159A               	andwf	sprintf@flag& (0+255),w,b
  3560  0019E6  6F8B               	movwf	??_sprintf& (0+255),b
  3561  0019E8  0E00               	movlw	0
  3562  0019EA  159B               	andwf	(sprintf@flag+1)& (0+255),w,b
  3563  0019EC  6F8C               	movwf	(??_sprintf+1)& (0+255),b
  3564  0019EE  518B               	movf	??_sprintf& (0+255),w,b
  3565  0019F0  118C               	iorwf	(??_sprintf+1)& (0+255),w,b
  3566  0019F2  B4D8               	btfsc	status,2,c
  3567  0019F4  D003               	goto	l445
  3568                           
  3569                           ; BSR set to: 0
  3570                           ;doprnt.c: 1346: width--;
  3571  0019F6  07A6               	decf	sprintf@width& (0+255),f,b
  3572  0019F8  A0D8               	btfss	status,0,c
  3573  0019FA  07A7               	decf	(sprintf@width+1)& (0+255),f,b
  3574  0019FC                     l445:
  3575                           
  3576                           ; BSR set to: 0
  3577                           ;doprnt.c: 1348: if(flag & 0x4000) {
  3578                           
  3579                           ; BSR set to: 0
  3580  0019FC  AD9B               	btfss	(sprintf@flag+1)& (0+255),6,b
  3581  0019FE  D013               	goto	l448
  3582                           
  3583                           ; BSR set to: 0
  3584                           ;doprnt.c: 1349: if(width > prec)
  3585  001A00  51A6               	movf	sprintf@width& (0+255),w,b
  3586  001A02  5DAB               	subwf	sprintf@prec& (0+255),w,b
  3587  001A04  51AC               	movf	(sprintf@prec+1)& (0+255),w,b
  3588  001A06  0A80               	xorlw	128
  3589  001A08  6F8B               	movwf	??_sprintf& (0+255),b
  3590  001A0A  51A7               	movf	(sprintf@width+1)& (0+255),w,b
  3591  001A0C  0A80               	xorlw	128
  3592  001A0E  598B               	subwfb	??_sprintf& (0+255),w,b
  3593  001A10  B0D8               	btfsc	status,0,c
  3594  001A12  D005               	goto	l447
  3595                           
  3596                           ; BSR set to: 0
  3597                           ;doprnt.c: 1350: width -= prec;
  3598  001A14  51AB               	movf	sprintf@prec& (0+255),w,b
  3599  001A16  5FA6               	subwf	sprintf@width& (0+255),f,b
  3600  001A18  51AC               	movf	(sprintf@prec+1)& (0+255),w,b
  3601  001A1A  5BA7               	subwfb	(sprintf@width+1)& (0+255),f,b
  3602  001A1C  D004               	goto	l448
  3603  001A1E                     l447:
  3604                           
  3605                           ; BSR set to: 0
  3606                           ;doprnt.c: 1351: else
  3607                           ;doprnt.c: 1352: width = 0;
  3608                           
  3609                           ; BSR set to: 0
  3610  001A1E  0E00               	movlw	0
  3611  001A20  6FA7               	movwf	(sprintf@width+1)& (0+255),b
  3612  001A22  0E00               	movlw	0
  3613  001A24  6FA6               	movwf	sprintf@width& (0+255),b
  3614  001A26                     l448:
  3615                           
  3616                           ; BSR set to: 0
  3617                           ;doprnt.c: 1353: }
  3618                           ;doprnt.c: 1381: if(width > c)
  3619                           
  3620                           ; BSR set to: 0
  3621                           
  3622                           ; BSR set to: 0
  3623  001A26  0E80               	movlw	128
  3624  001A28  BFAD               	btfsc	sprintf@c& (0+255),7,b
  3625  001A2A  0E7F               	movlw	127
  3626  001A2C  6F8B               	movwf	??_sprintf& (0+255),b
  3627  001A2E  51A6               	movf	sprintf@width& (0+255),w,b
  3628  001A30  5DAD               	subwf	sprintf@c& (0+255),w,b
  3629  001A32  51A7               	movf	(sprintf@width+1)& (0+255),w,b
  3630  001A34  0A80               	xorlw	128
  3631  001A36  598B               	subwfb	??_sprintf& (0+255),w,b
  3632  001A38  B0D8               	btfsc	status,0,c
  3633  001A3A  D007               	goto	l449
  3634                           
  3635                           ; BSR set to: 0
  3636                           ;doprnt.c: 1382: width -= c;
  3637  001A3C  51AD               	movf	sprintf@c& (0+255),w,b
  3638  001A3E  5FA6               	subwf	sprintf@width& (0+255),f,b
  3639  001A40  0E00               	movlw	0
  3640  001A42  BFAD               	btfsc	sprintf@c& (0+255),7,b
  3641  001A44  0EFF               	movlw	255
  3642  001A46  5BA7               	subwfb	(sprintf@width+1)& (0+255),f,b
  3643  001A48  D004               	goto	l450
  3644  001A4A                     l449:
  3645                           
  3646                           ; BSR set to: 0
  3647                           ;doprnt.c: 1383: else
  3648                           ;doprnt.c: 1384: width = 0;
  3649                           
  3650                           ; BSR set to: 0
  3651  001A4A  0E00               	movlw	0
  3652  001A4C  6FA7               	movwf	(sprintf@width+1)& (0+255),b
  3653  001A4E  0E00               	movlw	0
  3654  001A50  6FA6               	movwf	sprintf@width& (0+255),b
  3655  001A52                     l450:
  3656                           
  3657                           ; BSR set to: 0
  3658                           ;doprnt.c: 1422: {
  3659                           ;doprnt.c: 1424: if(width
  3660                           ;doprnt.c: 1428: )
  3661                           
  3662                           ; BSR set to: 0
  3663  001A52  51A6               	movf	sprintf@width& (0+255),w,b
  3664  001A54  11A7               	iorwf	(sprintf@width+1)& (0+255),w,b
  3665  001A56  B4D8               	btfsc	status,2,c
  3666  001A58  D00F               	goto	u5150
  3667  001A5A                     u5140:
  3668                           
  3669                           ; BSR set to: 0
  3670                           ;doprnt.c: 1430: ((*sp++ = (' ')));
  3671                           
  3672                           ; BSR set to: 0
  3673                           
  3674                           ;doprnt.c: 1429: do
  3675  001A5A  C080  FFD9         	movff	sprintf@sp,fsr2l
  3676  001A5E  C081  FFDA         	movff	sprintf@sp+1,fsr2h
  3677  001A62  0E20               	movlw	32
  3678  001A64  6EDF               	movwf	indf2,c
  3679                           
  3680                           ; BSR set to: 0
  3681  001A66  4B80               	infsnz	sprintf@sp& (0+255),f,b
  3682  001A68  2B81               	incf	(sprintf@sp+1)& (0+255),f,b
  3683                           
  3684                           ; BSR set to: 0
  3685                           ;doprnt.c: 1431: while(--width);
  3686  001A6A  07A6               	decf	sprintf@width& (0+255),f,b
  3687  001A6C  A0D8               	btfss	status,0,c
  3688  001A6E  07A7               	decf	(sprintf@width+1)& (0+255),f,b
  3689  001A70  51A6               	movf	sprintf@width& (0+255),w,b
  3690  001A72  11A7               	iorwf	(sprintf@width+1)& (0+255),w,b
  3691  001A74  A4D8               	btfss	status,2,c
  3692  001A76  D7F1               	goto	u5140
  3693  001A78                     u5150:
  3694                           
  3695                           ; BSR set to: 0
  3696                           ;doprnt.c: 1438: if(flag & 0x03)
  3697                           
  3698                           ; BSR set to: 0
  3699                           
  3700                           ; BSR set to: 0
  3701  001A78  0E03               	movlw	3
  3702  001A7A  159A               	andwf	sprintf@flag& (0+255),w,b
  3703  001A7C  6F8B               	movwf	??_sprintf& (0+255),b
  3704  001A7E  0E00               	movlw	0
  3705  001A80  159B               	andwf	(sprintf@flag+1)& (0+255),w,b
  3706  001A82  6F8C               	movwf	(??_sprintf+1)& (0+255),b
  3707  001A84  518B               	movf	??_sprintf& (0+255),w,b
  3708  001A86  118C               	iorwf	(??_sprintf+1)& (0+255),w,b
  3709  001A88  B4D8               	btfsc	status,2,c
  3710  001A8A  D04B               	goto	l455
  3711                           
  3712                           ; BSR set to: 0
  3713                           ;doprnt.c: 1439: ((*sp++ = ('-')));
  3714  001A8C  C080  FFD9         	movff	sprintf@sp,fsr2l
  3715  001A90  C081  FFDA         	movff	sprintf@sp+1,fsr2h
  3716  001A94  0E2D               	movlw	45
  3717  001A96  6EDF               	movwf	indf2,c
  3718  001A98  D042               	goto	l4720
  3719  001A9A                     l4716:
  3720                           
  3721                           ; BSR set to: 0
  3722                           ;doprnt.c: 1478: {
  3723                           ;doprnt.c: 1489: c = (val / dpowers[prec]) % 10 + '0';
  3724  001A9A  C0AB  F08B         	movff	sprintf@prec,??_sprintf
  3725  001A9E  C0AC  F08C         	movff	sprintf@prec+1,??_sprintf+1
  3726  001AA2  90D8               	bcf	status,0,c
  3727  001AA4  378B               	rlcf	??_sprintf& (0+255),f,b
  3728  001AA6  378C               	rlcf	(??_sprintf+1)& (0+255),f,b
  3729  001AA8  90D8               	bcf	status,0,c
  3730  001AAA  378B               	rlcf	??_sprintf& (0+255),f,b
  3731  001AAC  378C               	rlcf	(??_sprintf+1)& (0+255),f,b
  3732  001AAE  0E01               	movlw	low _dpowers
  3733  001AB0  258B               	addwf	??_sprintf& (0+255),w,b
  3734  001AB2  6EF6               	movwf	tblptrl,c
  3735  001AB4  0E10               	movlw	high _dpowers
  3736  001AB6  218C               	addwfc	(??_sprintf+1)& (0+255),w,b
  3737  001AB8  6EF7               	movwf	tblptrh,c
  3738  001ABA                     	if	0	;There are less than 3 active tblptr bytes
  3739  001ABA                     	endif
  3740  001ABA  0009               	tblrd		*+
  3741  001ABC  CFF5 F017          	movff	tablat,___lldiv@divisor
  3742  001AC0  0009               	tblrd		*+
  3743  001AC2  CFF5 F018          	movff	tablat,___lldiv@divisor+1
  3744  001AC6  0009               	tblrd		*+
  3745  001AC8  CFF5 F019          	movff	tablat,___lldiv@divisor+2
  3746  001ACC  000A               	tblrd		*-
  3747  001ACE  CFF5 F01A          	movff	tablat,___lldiv@divisor+3
  3748  001AD2  C0A0  F013         	movff	sprintf@val,___lldiv@dividend
  3749  001AD6  C0A1  F014         	movff	sprintf@val+1,___lldiv@dividend+1
  3750  001ADA  C0A2  F015         	movff	sprintf@val+2,___lldiv@dividend+2
  3751  001ADE  C0A3  F016         	movff	sprintf@val+3,___lldiv@dividend+3
  3752  001AE2  ECFC  F017         	call	___lldiv	;wreg free
  3753  001AE6  C013  F020         	movff	?___lldiv,___llmod@dividend
  3754  001AEA  C014  F021         	movff	?___lldiv+1,___llmod@dividend+1
  3755  001AEE  C015  F022         	movff	?___lldiv+2,___llmod@dividend+2
  3756  001AF2  C016  F023         	movff	?___lldiv+3,___llmod@dividend+3
  3757  001AF6  0E0A               	movlw	10
  3758  001AF8  6E24               	movwf	___llmod@divisor,c
  3759  001AFA  0E00               	movlw	0
  3760  001AFC  6E25               	movwf	___llmod@divisor+1,c
  3761  001AFE  0E00               	movlw	0
  3762  001B00  6E26               	movwf	___llmod@divisor+2,c
  3763  001B02  0E00               	movlw	0
  3764  001B04  6E27               	movwf	___llmod@divisor+3,c
  3765  001B06  EC75  F018         	call	___llmod	;wreg free
  3766  001B0A  5020               	movf	?___llmod,w,c
  3767  001B0C  0F30               	addlw	48
  3768  001B0E  0100               	movlb	0	; () banked
  3769  001B10  6FAD               	movwf	sprintf@c& (0+255),b
  3770                           
  3771                           ; BSR set to: 0
  3772                           ;doprnt.c: 1523: }
  3773                           ;doprnt.c: 1524: ((*sp++ = (c)));
  3774  001B12  C080  FFD9         	movff	sprintf@sp,fsr2l
  3775  001B16  C081  FFDA         	movff	sprintf@sp+1,fsr2h
  3776  001B1A  C0AD  FFDF         	movff	sprintf@c,indf2
  3777  001B1E                     l4720:
  3778                           
  3779                           ; BSR set to: 0
  3780  001B1E  4B80               	infsnz	sprintf@sp& (0+255),f,b
  3781  001B20  2B81               	incf	(sprintf@sp+1)& (0+255),f,b
  3782  001B22                     l455:
  3783                           
  3784                           ; BSR set to: 0
  3785                           
  3786                           ; BSR set to: 0
  3787  001B22  07AB               	decf	sprintf@prec& (0+255),f,b
  3788  001B24  A0D8               	btfss	status,0,c
  3789  001B26  07AC               	decf	(sprintf@prec+1)& (0+255),f,b
  3790  001B28  29AB               	incf	sprintf@prec& (0+255),w,b
  3791  001B2A  E1B7               	bnz	l4716
  3792  001B2C  29AC               	incf	(sprintf@prec+1)& (0+255),w,b
  3793  001B2E  A4D8               	btfss	status,2,c
  3794  001B30  D7B4               	goto	l456
  3795  001B32                     u5170:
  3796                           
  3797                           ; BSR set to: 0
  3798                           
  3799                           ; BSR set to: 0
  3800                           
  3801                           ; BSR set to: 0
  3802  001B32  C082  FFF6         	movff	sprintf@f,tblptrl
  3803  001B36  C083  FFF7         	movff	sprintf@f+1,tblptrh
  3804  001B3A  4B82               	infsnz	sprintf@f& (0+255),f,b
  3805  001B3C  2B83               	incf	(sprintf@f+1)& (0+255),f,b
  3806  001B3E                     	if	0	;tblptru may be non-zero
  3807  001B3E                     	endif
  3808  001B3E                     	if	0	;tblptru may be non-zero
  3809  001B3E                     	endif
  3810  001B3E  0008               	tblrd		*
  3811  001B40  CFF5 F0AD          	movff	tablat,sprintf@c
  3812  001B44  51AD               	movf	sprintf@c& (0+255),w,b
  3813  001B46  A4D8               	btfss	status,2,c
  3814  001B48  EF7B  F008         	goto	l365
  3815  001B4C                     u5180:
  3816                           
  3817                           ; BSR set to: 0
  3818                           ;doprnt.c: 1538: *sp = 0;
  3819                           
  3820                           ; BSR set to: 0
  3821                           
  3822                           ;doprnt.c: 1525: }
  3823                           ;doprnt.c: 1533: }
  3824                           ;doprnt.c: 1535: alldone:
  3825                           
  3826                           ; BSR set to: 0
  3827  001B4C  C080  FFD9         	movff	sprintf@sp,fsr2l
  3828  001B50  C081  FFDA         	movff	sprintf@sp+1,fsr2h
  3829  001B54  0E00               	movlw	0
  3830  001B56  6EDF               	movwf	indf2,c
  3831  001B58  0012               	return	
  3832  001B5A                     __end_of_sprintf:
  3833                           	opt stack 0
  3834                           tblptru	equ	0xFF8
  3835                           tblptrh	equ	0xFF7
  3836                           tblptrl	equ	0xFF6
  3837                           tablat	equ	0xFF5
  3838                           prodh	equ	0xFF4
  3839                           prodl	equ	0xFF3
  3840                           intcon	equ	0xFF2
  3841                           intcon2	equ	0xFF1
  3842                           intcon3	equ	0xFF0
  3843                           postinc0	equ	0xFEE
  3844                           wreg	equ	0xFE8
  3845                           indf1	equ	0xFE7
  3846                           postdec1	equ	0xFE5
  3847                           fsr1h	equ	0xFE2
  3848                           fsr1l	equ	0xFE1
  3849                           indf2	equ	0xFDF
  3850                           postinc2	equ	0xFDE
  3851                           postdec2	equ	0xFDD
  3852                           fsr2h	equ	0xFDA
  3853                           fsr2l	equ	0xFD9
  3854                           status	equ	0xFD8
  3855                           
  3856 ;; *************** function _scale *****************
  3857 ;; Defined at:
  3858 ;;		line 425 in file "C:\Program Files (x86)\Microchip\xc8\v1.45\sources\common\doprnt.c"
  3859 ;; Parameters:    Size  Location     Type
  3860 ;;  scl             1    wreg     char 
  3861 ;; Auto vars:     Size  Location     Type
  3862 ;;  scl             1   59[COMRAM] char 
  3863 ;; Return value:  Size  Location     Type
  3864 ;;                  3   53[COMRAM] char 
  3865 ;; Registers used:
  3866 ;;		wreg, status,2, status,0, tblptrl, tblptrh, tblptru, prodl, prodh, cstack
  3867 ;; Tracked objects:
  3868 ;;		On entry : 0/0
  3869 ;;		On exit  : 0/0
  3870 ;;		Unchanged: 0/0
  3871 ;; Data sizes:     COMRAM   BANK0   BANK1   BANK2   BANK3   BANK4   BANK5   BANK6   BANK7   BANK8   BANK9  BANK10  BANK1
      +1  BANK12  BANK13  BANK14  BANK15
  3872 ;;      Params:         3       0       0       0       0       0       0       0       0       0       0       0       
      +0       0       0       0       0
  3873 ;;      Locals:         4       0       0       0       0       0       0       0       0       0       0       0       
      +0       0       0       0       0
  3874 ;;      Temps:          0       0       0       0       0       0       0       0       0       0       0       0       
      +0       0       0       0       0
  3875 ;;      Totals:         7       0       0       0       0       0       0       0       0       0       0       0       
      +0       0       0       0       0
  3876 ;;Total ram usage:        7 bytes
  3877 ;; Hardware stack levels used:    1
  3878 ;; Hardware stack levels required when called:    3
  3879 ;; This function calls:
  3880 ;;		___awdiv
  3881 ;;		___awmod
  3882 ;;		___ftmul
  3883 ;;		___wmul
  3884 ;; This function is called by:
  3885 ;;		_sprintf
  3886 ;; This function uses a non-reentrant model
  3887 ;;
  3888                           
  3889                           	psect	text6
  3890  001B5A                     __ptext6:
  3891                           	opt stack 0
  3892  001B5A                     _scale:
  3893                           	opt stack 25
  3894                           
  3895                           ; BSR set to: 0
  3896                           ;incstack = 0
  3897                           ;scale@scl stored from wreg
  3898  001B5A  6E3C               	movwf	scale@scl,c
  3899                           
  3900                           ;doprnt.c: 428: if(scl < 0) {
  3901  001B5C  AE3C               	btfss	scale@scl,7,c
  3902  001B5E  D101               	goto	l354
  3903                           
  3904                           ;doprnt.c: 429: scl = -scl;
  3905  001B60  6C3C               	negf	scale@scl,c
  3906                           
  3907                           ;doprnt.c: 430: if(scl>=110)
  3908  001B62  503C               	movf	scale@scl,w,c
  3909  001B64  0A80               	xorlw	128
  3910  001B66  0F12               	addlw	-238
  3911  001B68  A0D8               	btfss	status,0,c
  3912  001B6A  D091               	goto	l355
  3913                           
  3914                           ;doprnt.c: 431: return _npowers_[scl/100+18] * _npowers_[(scl%100)/10+9] * _npowers_[scl
      +                          %10];
  3915  001B6C  0E00               	movlw	0
  3916  001B6E  6E24               	movwf	___wmul@multiplicand+1,c
  3917  001B70  0E03               	movlw	3
  3918  001B72  6E23               	movwf	___wmul@multiplicand,c
  3919  001B74  0E00               	movlw	0
  3920  001B76  6E1C               	movwf	___awdiv@divisor+1,c
  3921  001B78  0E0A               	movlw	10
  3922  001B7A  6E1B               	movwf	___awdiv@divisor,c
  3923  001B7C  0E00               	movlw	0
  3924  001B7E  6E16               	movwf	___awmod@divisor+1,c
  3925  001B80  0E64               	movlw	100
  3926  001B82  6E15               	movwf	___awmod@divisor,c
  3927  001B84  503C               	movf	scale@scl,w,c
  3928  001B86  6E13               	movwf	___awmod@dividend,c
  3929  001B88  6A14               	clrf	___awmod@dividend+1,c
  3930  001B8A  BE13               	btfsc	___awmod@dividend,7,c
  3931  001B8C  0614               	decf	___awmod@dividend+1,f,c
  3932  001B8E  EC3D  F018         	call	___awmod	;wreg free
  3933  001B92  C013  F019         	movff	?___awmod,___awdiv@dividend
  3934  001B96  C014  F01A         	movff	?___awmod+1,___awdiv@dividend+1
  3935  001B9A  ECBA  F017         	call	___awdiv	;wreg free
  3936  001B9E  0E09               	movlw	9
  3937  001BA0  2419               	addwf	?___awdiv,w,c
  3938  001BA2  6E21               	movwf	___wmul@multiplier,c
  3939  001BA4  0E00               	movlw	0
  3940  001BA6  201A               	addwfc	?___awdiv+1,w,c
  3941  001BA8  6E22               	movwf	___wmul@multiplier+1,c
  3942  001BAA  EC63  F01A         	call	___wmul	;wreg free
  3943  001BAE  0E50               	movlw	low __npowers_
  3944  001BB0  2421               	addwf	?___wmul,w,c
  3945  001BB2  6EF6               	movwf	tblptrl,c
  3946  001BB4  0E10               	movlw	high __npowers_
  3947  001BB6  2022               	addwfc	?___wmul+1,w,c
  3948  001BB8  6EF7               	movwf	tblptrh,c
  3949  001BBA                     	if	0	;There are less than 3 active tblptr bytes
  3950  001BBA                     	endif
  3951  001BBA  0009               	tblrd		*+
  3952  001BBC  CFF5 F02A          	movff	tablat,___ftmul@f2
  3953  001BC0  0009               	tblrd		*+
  3954  001BC2  CFF5 F02B          	movff	tablat,___ftmul@f2+1
  3955  001BC6  000A               	tblrd		*-
  3956  001BC8  CFF5 F02C          	movff	tablat,___ftmul@f2+2
  3957  001BCC  0E00               	movlw	0
  3958  001BCE  6E1C               	movwf	___awdiv@divisor+1,c
  3959  001BD0  0E64               	movlw	100
  3960  001BD2  6E1B               	movwf	___awdiv@divisor,c
  3961  001BD4  503C               	movf	scale@scl,w,c
  3962  001BD6  6E19               	movwf	___awdiv@dividend,c
  3963  001BD8  6A1A               	clrf	___awdiv@dividend+1,c
  3964  001BDA  BE19               	btfsc	___awdiv@dividend,7,c
  3965  001BDC  061A               	decf	___awdiv@dividend+1,f,c
  3966  001BDE  ECBA  F017         	call	___awdiv	;wreg free
  3967  001BE2  0E12               	movlw	18
  3968  001BE4  2419               	addwf	?___awdiv,w,c
  3969  001BE6  6E21               	movwf	___wmul@multiplier,c
  3970  001BE8  0E00               	movlw	0
  3971  001BEA  201A               	addwfc	?___awdiv+1,w,c
  3972  001BEC  6E22               	movwf	___wmul@multiplier+1,c
  3973  001BEE  0E00               	movlw	0
  3974  001BF0  6E24               	movwf	___wmul@multiplicand+1,c
  3975  001BF2  0E03               	movlw	3
  3976  001BF4  6E23               	movwf	___wmul@multiplicand,c
  3977  001BF6  EC63  F01A         	call	___wmul	;wreg free
  3978  001BFA  0E50               	movlw	low __npowers_
  3979  001BFC  2421               	addwf	?___wmul,w,c
  3980  001BFE  6EF6               	movwf	tblptrl,c
  3981  001C00  0E10               	movlw	high __npowers_
  3982  001C02  2022               	addwfc	?___wmul+1,w,c
  3983  001C04  6EF7               	movwf	tblptrh,c
  3984  001C06                     	if	0	;There are less than 3 active tblptr bytes
  3985  001C06                     	endif
  3986  001C06  0009               	tblrd		*+
  3987  001C08  CFF5 F027          	movff	tablat,___ftmul@f1
  3988  001C0C  0009               	tblrd		*+
  3989  001C0E  CFF5 F028          	movff	tablat,___ftmul@f1+1
  3990  001C12  000A               	tblrd		*-
  3991  001C14  CFF5 F029          	movff	tablat,___ftmul@f1+2
  3992  001C18  ECEC  F014         	call	___ftmul	;wreg free
  3993  001C1C  C027  F039         	movff	?___ftmul,_scale$1799
  3994  001C20  C028  F03A         	movff	?___ftmul+1,_scale$1799+1
  3995  001C24  C029  F03B         	movff	?___ftmul+2,_scale$1799+2
  3996                           
  3997                           ;doprnt.c: 431: return _npowers_[scl/100+18] * _npowers_[(scl%100)/10+9] * _npowers_[scl
      +                          %10];
  3998  001C28  C039  F027         	movff	_scale$1799,___ftmul@f1
  3999  001C2C  C03A  F028         	movff	_scale$1799+1,___ftmul@f1+1
  4000  001C30  C03B  F029         	movff	_scale$1799+2,___ftmul@f1+2
  4001  001C34  0E00               	movlw	0
  4002  001C36  6E24               	movwf	___wmul@multiplicand+1,c
  4003  001C38  0E03               	movlw	3
  4004  001C3A  6E23               	movwf	___wmul@multiplicand,c
  4005  001C3C  0E00               	movlw	0
  4006  001C3E  6E16               	movwf	___awmod@divisor+1,c
  4007  001C40  0E0A               	movlw	10
  4008  001C42  6E15               	movwf	___awmod@divisor,c
  4009  001C44  503C               	movf	scale@scl,w,c
  4010  001C46  6E13               	movwf	___awmod@dividend,c
  4011  001C48  6A14               	clrf	___awmod@dividend+1,c
  4012  001C4A  BE13               	btfsc	___awmod@dividend,7,c
  4013  001C4C  0614               	decf	___awmod@dividend+1,f,c
  4014  001C4E  EC3D  F018         	call	___awmod	;wreg free
  4015  001C52  C013  F021         	movff	?___awmod,___wmul@multiplier
  4016  001C56  C014  F022         	movff	?___awmod+1,___wmul@multiplier+1
  4017  001C5A  EC63  F01A         	call	___wmul	;wreg free
  4018  001C5E  0E50               	movlw	low __npowers_
  4019  001C60  2421               	addwf	?___wmul,w,c
  4020  001C62  6EF6               	movwf	tblptrl,c
  4021  001C64  0E10               	movlw	high __npowers_
  4022  001C66  2022               	addwfc	?___wmul+1,w,c
  4023  001C68  6EF7               	movwf	tblptrh,c
  4024  001C6A                     	if	0	;There are less than 3 active tblptr bytes
  4025  001C6A                     	endif
  4026  001C6A  0009               	tblrd		*+
  4027  001C6C  CFF5 F02A          	movff	tablat,___ftmul@f2
  4028  001C70  0009               	tblrd		*+
  4029  001C72  CFF5 F02B          	movff	tablat,___ftmul@f2+1
  4030  001C76  000A               	tblrd		*-
  4031  001C78  CFF5 F02C          	movff	tablat,___ftmul@f2+2
  4032  001C7C  ECEC  F014         	call	___ftmul	;wreg free
  4033  001C80  C027  F036         	movff	?___ftmul,?_scale
  4034  001C84  C028  F037         	movff	?___ftmul+1,?_scale+1
  4035  001C88  C029  F038         	movff	?___ftmul+2,?_scale+2
  4036  001C8C  0012               	return	
  4037  001C8E                     l355:
  4038                           
  4039                           ;doprnt.c: 432: else if(scl > 10)
  4040  001C8E  503C               	movf	scale@scl,w,c
  4041  001C90  0A80               	xorlw	128
  4042  001C92  0F75               	addlw	-139
  4043  001C94  A0D8               	btfss	status,0,c
  4044  001C96  D053               	goto	l358
  4045                           
  4046                           ;doprnt.c: 433: return _npowers_[scl/10+9] * _npowers_[scl%10];
  4047  001C98  0E00               	movlw	0
  4048  001C9A  6E1C               	movwf	___awdiv@divisor+1,c
  4049  001C9C  0E0A               	movlw	10
  4050  001C9E  6E1B               	movwf	___awdiv@divisor,c
  4051  001CA0  503C               	movf	scale@scl,w,c
  4052  001CA2  6E19               	movwf	___awdiv@dividend,c
  4053  001CA4  6A1A               	clrf	___awdiv@dividend+1,c
  4054  001CA6  BE19               	btfsc	___awdiv@dividend,7,c
  4055  001CA8  061A               	decf	___awdiv@dividend+1,f,c
  4056  001CAA  ECBA  F017         	call	___awdiv	;wreg free
  4057  001CAE  0E09               	movlw	9
  4058  001CB0  2419               	addwf	?___awdiv,w,c
  4059  001CB2  6E21               	movwf	___wmul@multiplier,c
  4060  001CB4  0E00               	movlw	0
  4061  001CB6  201A               	addwfc	?___awdiv+1,w,c
  4062  001CB8  6E22               	movwf	___wmul@multiplier+1,c
  4063  001CBA  0E00               	movlw	0
  4064  001CBC  6E24               	movwf	___wmul@multiplicand+1,c
  4065  001CBE  0E03               	movlw	3
  4066  001CC0  6E23               	movwf	___wmul@multiplicand,c
  4067  001CC2  EC63  F01A         	call	___wmul	;wreg free
  4068  001CC6  0E50               	movlw	low __npowers_
  4069  001CC8  2421               	addwf	?___wmul,w,c
  4070  001CCA  6EF6               	movwf	tblptrl,c
  4071  001CCC  0E10               	movlw	high __npowers_
  4072  001CCE  2022               	addwfc	?___wmul+1,w,c
  4073  001CD0  6EF7               	movwf	tblptrh,c
  4074  001CD2                     	if	0	;There are less than 3 active tblptr bytes
  4075  001CD2                     	endif
  4076  001CD2  0009               	tblrd		*+
  4077  001CD4  CFF5 F027          	movff	tablat,___ftmul@f1
  4078  001CD8  0009               	tblrd		*+
  4079  001CDA  CFF5 F028          	movff	tablat,___ftmul@f1+1
  4080  001CDE  000A               	tblrd		*-
  4081  001CE0  CFF5 F029          	movff	tablat,___ftmul@f1+2
  4082  001CE4  0E00               	movlw	0
  4083  001CE6  6E24               	movwf	___wmul@multiplicand+1,c
  4084  001CE8  0E03               	movlw	3
  4085  001CEA  6E23               	movwf	___wmul@multiplicand,c
  4086  001CEC  0E00               	movlw	0
  4087  001CEE  6E16               	movwf	___awmod@divisor+1,c
  4088  001CF0  0E0A               	movlw	10
  4089  001CF2  6E15               	movwf	___awmod@divisor,c
  4090  001CF4  503C               	movf	scale@scl,w,c
  4091  001CF6  6E13               	movwf	___awmod@dividend,c
  4092  001CF8  6A14               	clrf	___awmod@dividend+1,c
  4093  001CFA  BE13               	btfsc	___awmod@dividend,7,c
  4094  001CFC  0614               	decf	___awmod@dividend+1,f,c
  4095  001CFE  EC3D  F018         	call	___awmod	;wreg free
  4096  001D02  C013  F021         	movff	?___awmod,___wmul@multiplier
  4097  001D06  C014  F022         	movff	?___awmod+1,___wmul@multiplier+1
  4098  001D0A  EC63  F01A         	call	___wmul	;wreg free
  4099  001D0E  0E50               	movlw	low __npowers_
  4100  001D10  2421               	addwf	?___wmul,w,c
  4101  001D12  6EF6               	movwf	tblptrl,c
  4102  001D14  0E10               	movlw	high __npowers_
  4103  001D16  2022               	addwfc	?___wmul+1,w,c
  4104  001D18  6EF7               	movwf	tblptrh,c
  4105  001D1A                     	if	0	;There are less than 3 active tblptr bytes
  4106  001D1A                     	endif
  4107  001D1A  0009               	tblrd		*+
  4108  001D1C  CFF5 F02A          	movff	tablat,___ftmul@f2
  4109  001D20  0009               	tblrd		*+
  4110  001D22  CFF5 F02B          	movff	tablat,___ftmul@f2+1
  4111  001D26  000A               	tblrd		*-
  4112  001D28  CFF5 F02C          	movff	tablat,___ftmul@f2+2
  4113  001D2C  ECEC  F014         	call	___ftmul	;wreg free
  4114  001D30  C027  F036         	movff	?___ftmul,?_scale
  4115  001D34  C028  F037         	movff	?___ftmul+1,?_scale+1
  4116  001D38  C029  F038         	movff	?___ftmul+2,?_scale+2
  4117  001D3C  0012               	return	
  4118  001D3E                     l358:
  4119                           
  4120                           ;doprnt.c: 434: return _npowers_[scl];
  4121  001D3E  503C               	movf	scale@scl,w,c
  4122  001D40  0D03               	mullw	3
  4123  001D42  0E50               	movlw	low __npowers_
  4124  001D44  24F3               	addwf	prodl,w,c
  4125  001D46  6EF6               	movwf	tblptrl,c
  4126  001D48  0E10               	movlw	high __npowers_
  4127  001D4A  20F4               	addwfc	prodh,w,c
  4128  001D4C  6EF7               	movwf	tblptrh,c
  4129  001D4E                     	if	0	;There are less than 3 active tblptr bytes
  4130  001D4E                     	endif
  4131  001D4E  0009               	tblrd		*+
  4132  001D50  CFF5 F036          	movff	tablat,?_scale
  4133  001D54  0009               	tblrd		*+
  4134  001D56  CFF5 F037          	movff	tablat,?_scale+1
  4135  001D5A  000A               	tblrd		*-
  4136  001D5C  CFF5 F038          	movff	tablat,?_scale+2
  4137  001D60  0012               	return	
  4138  001D62                     l354:
  4139                           
  4140                           ;doprnt.c: 435: }
  4141                           ;doprnt.c: 436: if(scl>=110)
  4142  001D62  503C               	movf	scale@scl,w,c
  4143  001D64  0A80               	xorlw	128
  4144  001D66  0F12               	addlw	-238
  4145  001D68  A0D8               	btfss	status,0,c
  4146  001D6A  D091               	goto	l359
  4147                           
  4148                           ;doprnt.c: 437: return _powers_[scl/100+18] * _powers_[(scl%100)/10+9] * _powers_[scl%10
      +                          ];
  4149  001D6C  0E00               	movlw	0
  4150  001D6E  6E24               	movwf	___wmul@multiplicand+1,c
  4151  001D70  0E03               	movlw	3
  4152  001D72  6E23               	movwf	___wmul@multiplicand,c
  4153  001D74  0E00               	movlw	0
  4154  001D76  6E1C               	movwf	___awdiv@divisor+1,c
  4155  001D78  0E0A               	movlw	10
  4156  001D7A  6E1B               	movwf	___awdiv@divisor,c
  4157  001D7C  0E00               	movlw	0
  4158  001D7E  6E16               	movwf	___awmod@divisor+1,c
  4159  001D80  0E64               	movlw	100
  4160  001D82  6E15               	movwf	___awmod@divisor,c
  4161  001D84  503C               	movf	scale@scl,w,c
  4162  001D86  6E13               	movwf	___awmod@dividend,c
  4163  001D88  6A14               	clrf	___awmod@dividend+1,c
  4164  001D8A  BE13               	btfsc	___awmod@dividend,7,c
  4165  001D8C  0614               	decf	___awmod@dividend+1,f,c
  4166  001D8E  EC3D  F018         	call	___awmod	;wreg free
  4167  001D92  C013  F019         	movff	?___awmod,___awdiv@dividend
  4168  001D96  C014  F01A         	movff	?___awmod+1,___awdiv@dividend+1
  4169  001D9A  ECBA  F017         	call	___awdiv	;wreg free
  4170  001D9E  0E09               	movlw	9
  4171  001DA0  2419               	addwf	?___awdiv,w,c
  4172  001DA2  6E21               	movwf	___wmul@multiplier,c
  4173  001DA4  0E00               	movlw	0
  4174  001DA6  201A               	addwfc	?___awdiv+1,w,c
  4175  001DA8  6E22               	movwf	___wmul@multiplier+1,c
  4176  001DAA  EC63  F01A         	call	___wmul	;wreg free
  4177  001DAE  0E29               	movlw	low __powers_
  4178  001DB0  2421               	addwf	?___wmul,w,c
  4179  001DB2  6EF6               	movwf	tblptrl,c
  4180  001DB4  0E10               	movlw	high __powers_
  4181  001DB6  2022               	addwfc	?___wmul+1,w,c
  4182  001DB8  6EF7               	movwf	tblptrh,c
  4183  001DBA                     	if	0	;There are less than 3 active tblptr bytes
  4184  001DBA                     	endif
  4185  001DBA  0009               	tblrd		*+
  4186  001DBC  CFF5 F02A          	movff	tablat,___ftmul@f2
  4187  001DC0  0009               	tblrd		*+
  4188  001DC2  CFF5 F02B          	movff	tablat,___ftmul@f2+1
  4189  001DC6  000A               	tblrd		*-
  4190  001DC8  CFF5 F02C          	movff	tablat,___ftmul@f2+2
  4191  001DCC  0E00               	movlw	0
  4192  001DCE  6E1C               	movwf	___awdiv@divisor+1,c
  4193  001DD0  0E64               	movlw	100
  4194  001DD2  6E1B               	movwf	___awdiv@divisor,c
  4195  001DD4  503C               	movf	scale@scl,w,c
  4196  001DD6  6E19               	movwf	___awdiv@dividend,c
  4197  001DD8  6A1A               	clrf	___awdiv@dividend+1,c
  4198  001DDA  BE19               	btfsc	___awdiv@dividend,7,c
  4199  001DDC  061A               	decf	___awdiv@dividend+1,f,c
  4200  001DDE  ECBA  F017         	call	___awdiv	;wreg free
  4201  001DE2  0E12               	movlw	18
  4202  001DE4  2419               	addwf	?___awdiv,w,c
  4203  001DE6  6E21               	movwf	___wmul@multiplier,c
  4204  001DE8  0E00               	movlw	0
  4205  001DEA  201A               	addwfc	?___awdiv+1,w,c
  4206  001DEC  6E22               	movwf	___wmul@multiplier+1,c
  4207  001DEE  0E00               	movlw	0
  4208  001DF0  6E24               	movwf	___wmul@multiplicand+1,c
  4209  001DF2  0E03               	movlw	3
  4210  001DF4  6E23               	movwf	___wmul@multiplicand,c
  4211  001DF6  EC63  F01A         	call	___wmul	;wreg free
  4212  001DFA  0E29               	movlw	low __powers_
  4213  001DFC  2421               	addwf	?___wmul,w,c
  4214  001DFE  6EF6               	movwf	tblptrl,c
  4215  001E00  0E10               	movlw	high __powers_
  4216  001E02  2022               	addwfc	?___wmul+1,w,c
  4217  001E04  6EF7               	movwf	tblptrh,c
  4218  001E06                     	if	0	;There are less than 3 active tblptr bytes
  4219  001E06                     	endif
  4220  001E06  0009               	tblrd		*+
  4221  001E08  CFF5 F027          	movff	tablat,___ftmul@f1
  4222  001E0C  0009               	tblrd		*+
  4223  001E0E  CFF5 F028          	movff	tablat,___ftmul@f1+1
  4224  001E12  000A               	tblrd		*-
  4225  001E14  CFF5 F029          	movff	tablat,___ftmul@f1+2
  4226  001E18  ECEC  F014         	call	___ftmul	;wreg free
  4227  001E1C  C027  F039         	movff	?___ftmul,_scale$1799
  4228  001E20  C028  F03A         	movff	?___ftmul+1,_scale$1799+1
  4229  001E24  C029  F03B         	movff	?___ftmul+2,_scale$1799+2
  4230                           
  4231                           ;doprnt.c: 437: return _powers_[scl/100+18] * _powers_[(scl%100)/10+9] * _powers_[scl%10
      +                          ];
  4232  001E28  C039  F027         	movff	_scale$1799,___ftmul@f1
  4233  001E2C  C03A  F028         	movff	_scale$1799+1,___ftmul@f1+1
  4234  001E30  C03B  F029         	movff	_scale$1799+2,___ftmul@f1+2
  4235  001E34  0E00               	movlw	0
  4236  001E36  6E24               	movwf	___wmul@multiplicand+1,c
  4237  001E38  0E03               	movlw	3
  4238  001E3A  6E23               	movwf	___wmul@multiplicand,c
  4239  001E3C  0E00               	movlw	0
  4240  001E3E  6E16               	movwf	___awmod@divisor+1,c
  4241  001E40  0E0A               	movlw	10
  4242  001E42  6E15               	movwf	___awmod@divisor,c
  4243  001E44  503C               	movf	scale@scl,w,c
  4244  001E46  6E13               	movwf	___awmod@dividend,c
  4245  001E48  6A14               	clrf	___awmod@dividend+1,c
  4246  001E4A  BE13               	btfsc	___awmod@dividend,7,c
  4247  001E4C  0614               	decf	___awmod@dividend+1,f,c
  4248  001E4E  EC3D  F018         	call	___awmod	;wreg free
  4249  001E52  C013  F021         	movff	?___awmod,___wmul@multiplier
  4250  001E56  C014  F022         	movff	?___awmod+1,___wmul@multiplier+1
  4251  001E5A  EC63  F01A         	call	___wmul	;wreg free
  4252  001E5E  0E29               	movlw	low __powers_
  4253  001E60  2421               	addwf	?___wmul,w,c
  4254  001E62  6EF6               	movwf	tblptrl,c
  4255  001E64  0E10               	movlw	high __powers_
  4256  001E66  2022               	addwfc	?___wmul+1,w,c
  4257  001E68  6EF7               	movwf	tblptrh,c
  4258  001E6A                     	if	0	;There are less than 3 active tblptr bytes
  4259  001E6A                     	endif
  4260  001E6A  0009               	tblrd		*+
  4261  001E6C  CFF5 F02A          	movff	tablat,___ftmul@f2
  4262  001E70  0009               	tblrd		*+
  4263  001E72  CFF5 F02B          	movff	tablat,___ftmul@f2+1
  4264  001E76  000A               	tblrd		*-
  4265  001E78  CFF5 F02C          	movff	tablat,___ftmul@f2+2
  4266  001E7C  ECEC  F014         	call	___ftmul	;wreg free
  4267  001E80  C027  F036         	movff	?___ftmul,?_scale
  4268  001E84  C028  F037         	movff	?___ftmul+1,?_scale+1
  4269  001E88  C029  F038         	movff	?___ftmul+2,?_scale+2
  4270  001E8C  0012               	return	
  4271  001E8E                     l359:
  4272                           
  4273                           ;doprnt.c: 438: else if(scl > 10)
  4274  001E8E  503C               	movf	scale@scl,w,c
  4275  001E90  0A80               	xorlw	128
  4276  001E92  0F75               	addlw	-139
  4277  001E94  A0D8               	btfss	status,0,c
  4278  001E96  D053               	goto	l361
  4279                           
  4280                           ;doprnt.c: 439: return _powers_[scl/10+9] * _powers_[scl%10];
  4281  001E98  0E00               	movlw	0
  4282  001E9A  6E1C               	movwf	___awdiv@divisor+1,c
  4283  001E9C  0E0A               	movlw	10
  4284  001E9E  6E1B               	movwf	___awdiv@divisor,c
  4285  001EA0  503C               	movf	scale@scl,w,c
  4286  001EA2  6E19               	movwf	___awdiv@dividend,c
  4287  001EA4  6A1A               	clrf	___awdiv@dividend+1,c
  4288  001EA6  BE19               	btfsc	___awdiv@dividend,7,c
  4289  001EA8  061A               	decf	___awdiv@dividend+1,f,c
  4290  001EAA  ECBA  F017         	call	___awdiv	;wreg free
  4291  001EAE  0E09               	movlw	9
  4292  001EB0  2419               	addwf	?___awdiv,w,c
  4293  001EB2  6E21               	movwf	___wmul@multiplier,c
  4294  001EB4  0E00               	movlw	0
  4295  001EB6  201A               	addwfc	?___awdiv+1,w,c
  4296  001EB8  6E22               	movwf	___wmul@multiplier+1,c
  4297  001EBA  0E00               	movlw	0
  4298  001EBC  6E24               	movwf	___wmul@multiplicand+1,c
  4299  001EBE  0E03               	movlw	3
  4300  001EC0  6E23               	movwf	___wmul@multiplicand,c
  4301  001EC2  EC63  F01A         	call	___wmul	;wreg free
  4302  001EC6  0E29               	movlw	low __powers_
  4303  001EC8  2421               	addwf	?___wmul,w,c
  4304  001ECA  6EF6               	movwf	tblptrl,c
  4305  001ECC  0E10               	movlw	high __powers_
  4306  001ECE  2022               	addwfc	?___wmul+1,w,c
  4307  001ED0  6EF7               	movwf	tblptrh,c
  4308  001ED2                     	if	0	;There are less than 3 active tblptr bytes
  4309  001ED2                     	endif
  4310  001ED2  0009               	tblrd		*+
  4311  001ED4  CFF5 F027          	movff	tablat,___ftmul@f1
  4312  001ED8  0009               	tblrd		*+
  4313  001EDA  CFF5 F028          	movff	tablat,___ftmul@f1+1
  4314  001EDE  000A               	tblrd		*-
  4315  001EE0  CFF5 F029          	movff	tablat,___ftmul@f1+2
  4316  001EE4  0E00               	movlw	0
  4317  001EE6  6E24               	movwf	___wmul@multiplicand+1,c
  4318  001EE8  0E03               	movlw	3
  4319  001EEA  6E23               	movwf	___wmul@multiplicand,c
  4320  001EEC  0E00               	movlw	0
  4321  001EEE  6E16               	movwf	___awmod@divisor+1,c
  4322  001EF0  0E0A               	movlw	10
  4323  001EF2  6E15               	movwf	___awmod@divisor,c
  4324  001EF4  503C               	movf	scale@scl,w,c
  4325  001EF6  6E13               	movwf	___awmod@dividend,c
  4326  001EF8  6A14               	clrf	___awmod@dividend+1,c
  4327  001EFA  BE13               	btfsc	___awmod@dividend,7,c
  4328  001EFC  0614               	decf	___awmod@dividend+1,f,c
  4329  001EFE  EC3D  F018         	call	___awmod	;wreg free
  4330  001F02  C013  F021         	movff	?___awmod,___wmul@multiplier
  4331  001F06  C014  F022         	movff	?___awmod+1,___wmul@multiplier+1
  4332  001F0A  EC63  F01A         	call	___wmul	;wreg free
  4333  001F0E  0E29               	movlw	low __powers_
  4334  001F10  2421               	addwf	?___wmul,w,c
  4335  001F12  6EF6               	movwf	tblptrl,c
  4336  001F14  0E10               	movlw	high __powers_
  4337  001F16  2022               	addwfc	?___wmul+1,w,c
  4338  001F18  6EF7               	movwf	tblptrh,c
  4339  001F1A                     	if	0	;There are less than 3 active tblptr bytes
  4340  001F1A                     	endif
  4341  001F1A  0009               	tblrd		*+
  4342  001F1C  CFF5 F02A          	movff	tablat,___ftmul@f2
  4343  001F20  0009               	tblrd		*+
  4344  001F22  CFF5 F02B          	movff	tablat,___ftmul@f2+1
  4345  001F26  000A               	tblrd		*-
  4346  001F28  CFF5 F02C          	movff	tablat,___ftmul@f2+2
  4347  001F2C  ECEC  F014         	call	___ftmul	;wreg free
  4348  001F30  C027  F036         	movff	?___ftmul,?_scale
  4349  001F34  C028  F037         	movff	?___ftmul+1,?_scale+1
  4350  001F38  C029  F038         	movff	?___ftmul+2,?_scale+2
  4351  001F3C  0012               	return	
  4352  001F3E                     l361:
  4353                           
  4354                           ;doprnt.c: 440: return _powers_[scl];
  4355  001F3E  503C               	movf	scale@scl,w,c
  4356  001F40  0D03               	mullw	3
  4357  001F42  0E29               	movlw	low __powers_
  4358  001F44  24F3               	addwf	prodl,w,c
  4359  001F46  6EF6               	movwf	tblptrl,c
  4360  001F48  0E10               	movlw	high __powers_
  4361  001F4A  20F4               	addwfc	prodh,w,c
  4362  001F4C  6EF7               	movwf	tblptrh,c
  4363  001F4E                     	if	0	;There are less than 3 active tblptr bytes
  4364  001F4E                     	endif
  4365  001F4E  0009               	tblrd		*+
  4366  001F50  CFF5 F036          	movff	tablat,?_scale
  4367  001F54  0009               	tblrd		*+
  4368  001F56  CFF5 F037          	movff	tablat,?_scale+1
  4369  001F5A  000A               	tblrd		*-
  4370  001F5C  CFF5 F038          	movff	tablat,?_scale+2
  4371  001F60  0012               	return	
  4372  001F62                     __end_of_scale:
  4373                           	opt stack 0
  4374                           tblptru	equ	0xFF8
  4375                           tblptrh	equ	0xFF7
  4376                           tblptrl	equ	0xFF6
  4377                           tablat	equ	0xFF5
  4378                           prodh	equ	0xFF4
  4379                           prodl	equ	0xFF3
  4380                           intcon	equ	0xFF2
  4381                           intcon2	equ	0xFF1
  4382                           intcon3	equ	0xFF0
  4383                           postinc0	equ	0xFEE
  4384                           wreg	equ	0xFE8
  4385                           indf1	equ	0xFE7
  4386                           postdec1	equ	0xFE5
  4387                           fsr1h	equ	0xFE2
  4388                           fsr1l	equ	0xFE1
  4389                           indf2	equ	0xFDF
  4390                           postinc2	equ	0xFDE
  4391                           postdec2	equ	0xFDD
  4392                           fsr2h	equ	0xFDA
  4393                           fsr2l	equ	0xFD9
  4394                           status	equ	0xFD8
  4395                           
  4396 ;; *************** function _isdigit *****************
  4397 ;; Defined at:
  4398 ;;		line 8 in file "C:\Program Files (x86)\Microchip\xc8\v1.45\sources\common\isdigit.c"
  4399 ;; Parameters:    Size  Location     Type
  4400 ;;  c               1    wreg     unsigned char 
  4401 ;; Auto vars:     Size  Location     Type
  4402 ;;  c               1   20[COMRAM] unsigned char 
  4403 ;; Return value:  Size  Location     Type
  4404 ;;		None               void
  4405 ;; Registers used:
  4406 ;;		wreg, status,2, status,0
  4407 ;; Tracked objects:
  4408 ;;		On entry : 0/0
  4409 ;;		On exit  : 0/0
  4410 ;;		Unchanged: 0/0
  4411 ;; Data sizes:     COMRAM   BANK0   BANK1   BANK2   BANK3   BANK4   BANK5   BANK6   BANK7   BANK8   BANK9  BANK10  BANK1
      +1  BANK12  BANK13  BANK14  BANK15
  4412 ;;      Params:         0       0       0       0       0       0       0       0       0       0       0       0       
      +0       0       0       0       0
  4413 ;;      Locals:         2       0       0       0       0       0       0       0       0       0       0       0       
      +0       0       0       0       0
  4414 ;;      Temps:          1       0       0       0       0       0       0       0       0       0       0       0       
      +0       0       0       0       0
  4415 ;;      Totals:         3       0       0       0       0       0       0       0       0       0       0       0       
      +0       0       0       0       0
  4416 ;;Total ram usage:        3 bytes
  4417 ;; Hardware stack levels used:    1
  4418 ;; Hardware stack levels required when called:    1
  4419 ;; This function calls:
  4420 ;;		Nothing
  4421 ;; This function is called by:
  4422 ;;		_sprintf
  4423 ;; This function uses a non-reentrant model
  4424 ;;
  4425                           
  4426                           	psect	text7
  4427  003608                     __ptext7:
  4428                           	opt stack 0
  4429  003608                     _isdigit:
  4430                           	opt stack 27
  4431                           
  4432                           ;incstack = 0
  4433                           ;isdigit@c stored from wreg
  4434  003608  6E15               	movwf	isdigit@c,c
  4435  00360A  0E00               	movlw	0
  4436  00360C  6E14               	movwf	_isdigit$1441,c
  4437  00360E  0E3A               	movlw	58
  4438  003610  6015               	cpfslt	isdigit@c,c
  4439  003612  D005               	goto	l823
  4440  003614  0E2F               	movlw	47
  4441  003616  6415               	cpfsgt	isdigit@c,c
  4442  003618  D002               	goto	l823
  4443  00361A  0E01               	movlw	1
  4444  00361C  6E14               	movwf	_isdigit$1441,c
  4445  00361E                     l823:
  4446  00361E  C014  F013         	movff	_isdigit$1441,??_isdigit
  4447  003622  3013               	rrcf	??_isdigit,w,c
  4448  003624  0012               	return	
  4449  003626                     __end_of_isdigit:
  4450                           	opt stack 0
  4451                           tblptru	equ	0xFF8
  4452                           tblptrh	equ	0xFF7
  4453                           tblptrl	equ	0xFF6
  4454                           tablat	equ	0xFF5
  4455                           prodh	equ	0xFF4
  4456                           prodl	equ	0xFF3
  4457                           intcon	equ	0xFF2
  4458                           intcon2	equ	0xFF1
  4459                           intcon3	equ	0xFF0
  4460                           postinc0	equ	0xFEE
  4461                           wreg	equ	0xFE8
  4462                           indf1	equ	0xFE7
  4463                           postdec1	equ	0xFE5
  4464                           fsr1h	equ	0xFE2
  4465                           fsr1l	equ	0xFE1
  4466                           indf2	equ	0xFDF
  4467                           postinc2	equ	0xFDE
  4468                           postdec2	equ	0xFDD
  4469                           fsr2h	equ	0xFDA
  4470                           fsr2l	equ	0xFD9
  4471                           status	equ	0xFD8
  4472                           
  4473 ;; *************** function _fround *****************
  4474 ;; Defined at:
  4475 ;;		line 409 in file "C:\Program Files (x86)\Microchip\xc8\v1.45\sources\common\doprnt.c"
  4476 ;; Parameters:    Size  Location     Type
  4477 ;;  prec            1    wreg     unsigned char 
  4478 ;; Auto vars:     Size  Location     Type
  4479 ;;  prec            1   62[COMRAM] unsigned char 
  4480 ;; Return value:  Size  Location     Type
  4481 ;;                  3   53[COMRAM] unsigned char 
  4482 ;; Registers used:
  4483 ;;		wreg, status,2, status,0, tblptrl, tblptrh, tblptru, prodl, prodh, cstack
  4484 ;; Tracked objects:
  4485 ;;		On entry : 0/0
  4486 ;;		On exit  : 0/0
  4487 ;;		Unchanged: 0/0
  4488 ;; Data sizes:     COMRAM   BANK0   BANK1   BANK2   BANK3   BANK4   BANK5   BANK6   BANK7   BANK8   BANK9  BANK10  BANK1
      +1  BANK12  BANK13  BANK14  BANK15
  4489 ;;      Params:         3       0       0       0       0       0       0       0       0       0       0       0       
      +0       0       0       0       0
  4490 ;;      Locals:         7       0       0       0       0       0       0       0       0       0       0       0       
      +0       0       0       0       0
  4491 ;;      Temps:          0       0       0       0       0       0       0       0       0       0       0       0       
      +0       0       0       0       0
  4492 ;;      Totals:        10       0       0       0       0       0       0       0       0       0       0       0       
      +0       0       0       0       0
  4493 ;;Total ram usage:       10 bytes
  4494 ;; Hardware stack levels used:    1
  4495 ;; Hardware stack levels required when called:    3
  4496 ;; This function calls:
  4497 ;;		___awdiv
  4498 ;;		___awmod
  4499 ;;		___ftmul
  4500 ;;		___wmul
  4501 ;; This function is called by:
  4502 ;;		_sprintf
  4503 ;; This function uses a non-reentrant model
  4504 ;;
  4505                           
  4506                           	psect	text8
  4507  00222E                     __ptext8:
  4508                           	opt stack 0
  4509  00222E                     _fround:
  4510                           	opt stack 25
  4511                           
  4512                           ;incstack = 0
  4513                           ;fround@prec stored from wreg
  4514  00222E  6E3F               	movwf	fround@prec,c
  4515                           
  4516                           ;doprnt.c: 413: if(prec>=110)
  4517  002230  0E6D               	movlw	109
  4518  002232  643F               	cpfsgt	fround@prec,c
  4519  002234  D09F               	goto	l348
  4520                           
  4521                           ;doprnt.c: 414: return 0.5 * _npowers_[prec/100+18] * _npowers_[(prec%100)/10+9] * _npow
      +                          ers_[prec%10];
  4522  002236  0E00               	movlw	0
  4523  002238  6E24               	movwf	___wmul@multiplicand+1,c
  4524  00223A  0E03               	movlw	3
  4525  00223C  6E23               	movwf	___wmul@multiplicand,c
  4526  00223E  0E00               	movlw	0
  4527  002240  6E1C               	movwf	___awdiv@divisor+1,c
  4528  002242  0E0A               	movlw	10
  4529  002244  6E1B               	movwf	___awdiv@divisor,c
  4530  002246  0E00               	movlw	0
  4531  002248  6E16               	movwf	___awmod@divisor+1,c
  4532  00224A  0E64               	movlw	100
  4533  00224C  6E15               	movwf	___awmod@divisor,c
  4534  00224E  C03F  F013         	movff	fround@prec,___awmod@dividend
  4535  002252  6A14               	clrf	___awmod@dividend+1,c
  4536  002254  EC3D  F018         	call	___awmod	;wreg free
  4537  002258  C013  F019         	movff	?___awmod,___awdiv@dividend
  4538  00225C  C014  F01A         	movff	?___awmod+1,___awdiv@dividend+1
  4539  002260  ECBA  F017         	call	___awdiv	;wreg free
  4540  002264  0E09               	movlw	9
  4541  002266  2419               	addwf	?___awdiv,w,c
  4542  002268  6E21               	movwf	___wmul@multiplier,c
  4543  00226A  0E00               	movlw	0
  4544  00226C  201A               	addwfc	?___awdiv+1,w,c
  4545  00226E  6E22               	movwf	___wmul@multiplier+1,c
  4546  002270  EC63  F01A         	call	___wmul	;wreg free
  4547  002274  0E50               	movlw	low __npowers_
  4548  002276  2421               	addwf	?___wmul,w,c
  4549  002278  6EF6               	movwf	tblptrl,c
  4550  00227A  0E10               	movlw	high __npowers_
  4551  00227C  2022               	addwfc	?___wmul+1,w,c
  4552  00227E  6EF7               	movwf	tblptrh,c
  4553  002280                     	if	0	;There are less than 3 active tblptr bytes
  4554  002280                     	endif
  4555  002280  0009               	tblrd		*+
  4556  002282  CFF5 F02A          	movff	tablat,___ftmul@f2
  4557  002286  0009               	tblrd		*+
  4558  002288  CFF5 F02B          	movff	tablat,___ftmul@f2+1
  4559  00228C  000A               	tblrd		*-
  4560  00228E  CFF5 F02C          	movff	tablat,___ftmul@f2+2
  4561  002292  0E00               	movlw	0
  4562  002294  6E1C               	movwf	___awdiv@divisor+1,c
  4563  002296  0E64               	movlw	100
  4564  002298  6E1B               	movwf	___awdiv@divisor,c
  4565  00229A  C03F  F019         	movff	fround@prec,___awdiv@dividend
  4566  00229E  6A1A               	clrf	___awdiv@dividend+1,c
  4567  0022A0  ECBA  F017         	call	___awdiv	;wreg free
  4568  0022A4  0E12               	movlw	18
  4569  0022A6  2419               	addwf	?___awdiv,w,c
  4570  0022A8  6E21               	movwf	___wmul@multiplier,c
  4571  0022AA  0E00               	movlw	0
  4572  0022AC  201A               	addwfc	?___awdiv+1,w,c
  4573  0022AE  6E22               	movwf	___wmul@multiplier+1,c
  4574  0022B0  0E00               	movlw	0
  4575  0022B2  6E24               	movwf	___wmul@multiplicand+1,c
  4576  0022B4  0E03               	movlw	3
  4577  0022B6  6E23               	movwf	___wmul@multiplicand,c
  4578  0022B8  EC63  F01A         	call	___wmul	;wreg free
  4579  0022BC  0E50               	movlw	low __npowers_
  4580  0022BE  2421               	addwf	?___wmul,w,c
  4581  0022C0  6EF6               	movwf	tblptrl,c
  4582  0022C2  0E10               	movlw	high __npowers_
  4583  0022C4  2022               	addwfc	?___wmul+1,w,c
  4584  0022C6  6EF7               	movwf	tblptrh,c
  4585  0022C8                     	if	0	;There are less than 3 active tblptr bytes
  4586  0022C8                     	endif
  4587  0022C8  0009               	tblrd		*+
  4588  0022CA  CFF5 F027          	movff	tablat,___ftmul@f1
  4589  0022CE  0009               	tblrd		*+
  4590  0022D0  CFF5 F028          	movff	tablat,___ftmul@f1+1
  4591  0022D4  000A               	tblrd		*-
  4592  0022D6  CFF5 F029          	movff	tablat,___ftmul@f1+2
  4593  0022DA  ECEC  F014         	call	___ftmul	;wreg free
  4594  0022DE  C027  F03C         	movff	?___ftmul,_fround$1797
  4595  0022E2  C028  F03D         	movff	?___ftmul+1,_fround$1797+1
  4596  0022E6  C029  F03E         	movff	?___ftmul+2,_fround$1797+2
  4597                           
  4598                           ;doprnt.c: 414: return 0.5 * _npowers_[prec/100+18] * _npowers_[(prec%100)/10+9] * _npow
      +                          ers_[prec%10];
  4599  0022EA  0E00               	movlw	0
  4600  0022EC  6E24               	movwf	___wmul@multiplicand+1,c
  4601  0022EE  0E03               	movlw	3
  4602  0022F0  6E23               	movwf	___wmul@multiplicand,c
  4603  0022F2  0E00               	movlw	0
  4604  0022F4  6E16               	movwf	___awmod@divisor+1,c
  4605  0022F6  0E0A               	movlw	10
  4606  0022F8  6E15               	movwf	___awmod@divisor,c
  4607  0022FA  C03F  F013         	movff	fround@prec,___awmod@dividend
  4608  0022FE  6A14               	clrf	___awmod@dividend+1,c
  4609  002300  EC3D  F018         	call	___awmod	;wreg free
  4610  002304  C013  F021         	movff	?___awmod,___wmul@multiplier
  4611  002308  C014  F022         	movff	?___awmod+1,___wmul@multiplier+1
  4612  00230C  EC63  F01A         	call	___wmul	;wreg free
  4613  002310  0E50               	movlw	low __npowers_
  4614  002312  2421               	addwf	?___wmul,w,c
  4615  002314  6EF6               	movwf	tblptrl,c
  4616  002316  0E10               	movlw	high __npowers_
  4617  002318  2022               	addwfc	?___wmul+1,w,c
  4618  00231A  6EF7               	movwf	tblptrh,c
  4619  00231C                     	if	0	;There are less than 3 active tblptr bytes
  4620  00231C                     	endif
  4621  00231C  0009               	tblrd		*+
  4622  00231E  CFF5 F02A          	movff	tablat,___ftmul@f2
  4623  002322  0009               	tblrd		*+
  4624  002324  CFF5 F02B          	movff	tablat,___ftmul@f2+1
  4625  002328  000A               	tblrd		*-
  4626  00232A  CFF5 F02C          	movff	tablat,___ftmul@f2+2
  4627  00232E  C03C  F027         	movff	_fround$1797,___ftmul@f1
  4628  002332  C03D  F028         	movff	_fround$1797+1,___ftmul@f1+1
  4629  002336  C03E  F029         	movff	_fround$1797+2,___ftmul@f1+2
  4630  00233A  ECEC  F014         	call	___ftmul	;wreg free
  4631  00233E  C027  F039         	movff	?___ftmul,_fround$1798
  4632  002342  C028  F03A         	movff	?___ftmul+1,_fround$1798+1
  4633  002346  C029  F03B         	movff	?___ftmul+2,_fround$1798+2
  4634                           
  4635                           ;doprnt.c: 414: return 0.5 * _npowers_[prec/100+18] * _npowers_[(prec%100)/10+9] * _npow
      +                          ers_[prec%10];
  4636  00234A  C039  F027         	movff	_fround$1798,___ftmul@f1
  4637  00234E  C03A  F028         	movff	_fround$1798+1,___ftmul@f1+1
  4638  002352  C03B  F029         	movff	_fround$1798+2,___ftmul@f1+2
  4639  002356  0E00               	movlw	0
  4640  002358  6E2A               	movwf	___ftmul@f2,c
  4641  00235A  0E00               	movlw	0
  4642  00235C  6E2B               	movwf	___ftmul@f2+1,c
  4643  00235E  0E3F               	movlw	63
  4644  002360  6E2C               	movwf	___ftmul@f2+2,c
  4645  002362  ECEC  F014         	call	___ftmul	;wreg free
  4646  002366  C027  F036         	movff	?___ftmul,?_fround
  4647  00236A  C028  F037         	movff	?___ftmul+1,?_fround+1
  4648  00236E  C029  F038         	movff	?___ftmul+2,?_fround+2
  4649  002372  0012               	return	
  4650  002374                     l348:
  4651                           
  4652                           ;doprnt.c: 415: else if(prec > 10)
  4653  002374  0E0A               	movlw	10
  4654  002376  643F               	cpfsgt	fround@prec,c
  4655  002378  D063               	goto	l351
  4656                           
  4657                           ;doprnt.c: 416: return 0.5 * _npowers_[prec/10+9] * _npowers_[prec%10];
  4658  00237A  0E00               	movlw	0
  4659  00237C  6E24               	movwf	___wmul@multiplicand+1,c
  4660  00237E  0E03               	movlw	3
  4661  002380  6E23               	movwf	___wmul@multiplicand,c
  4662  002382  0E00               	movlw	0
  4663  002384  6E16               	movwf	___awmod@divisor+1,c
  4664  002386  0E0A               	movlw	10
  4665  002388  6E15               	movwf	___awmod@divisor,c
  4666  00238A  C03F  F013         	movff	fround@prec,___awmod@dividend
  4667  00238E  6A14               	clrf	___awmod@dividend+1,c
  4668  002390  EC3D  F018         	call	___awmod	;wreg free
  4669  002394  C013  F021         	movff	?___awmod,___wmul@multiplier
  4670  002398  C014  F022         	movff	?___awmod+1,___wmul@multiplier+1
  4671  00239C  EC63  F01A         	call	___wmul	;wreg free
  4672  0023A0  0E50               	movlw	low __npowers_
  4673  0023A2  2421               	addwf	?___wmul,w,c
  4674  0023A4  6EF6               	movwf	tblptrl,c
  4675  0023A6  0E10               	movlw	high __npowers_
  4676  0023A8  2022               	addwfc	?___wmul+1,w,c
  4677  0023AA  6EF7               	movwf	tblptrh,c
  4678  0023AC                     	if	0	;There are less than 3 active tblptr bytes
  4679  0023AC                     	endif
  4680  0023AC  0009               	tblrd		*+
  4681  0023AE  CFF5 F02A          	movff	tablat,___ftmul@f2
  4682  0023B2  0009               	tblrd		*+
  4683  0023B4  CFF5 F02B          	movff	tablat,___ftmul@f2+1
  4684  0023B8  000A               	tblrd		*-
  4685  0023BA  CFF5 F02C          	movff	tablat,___ftmul@f2+2
  4686  0023BE  0E00               	movlw	0
  4687  0023C0  6E1C               	movwf	___awdiv@divisor+1,c
  4688  0023C2  0E0A               	movlw	10
  4689  0023C4  6E1B               	movwf	___awdiv@divisor,c
  4690  0023C6  C03F  F019         	movff	fround@prec,___awdiv@dividend
  4691  0023CA  6A1A               	clrf	___awdiv@dividend+1,c
  4692  0023CC  ECBA  F017         	call	___awdiv	;wreg free
  4693  0023D0  0E09               	movlw	9
  4694  0023D2  2419               	addwf	?___awdiv,w,c
  4695  0023D4  6E21               	movwf	___wmul@multiplier,c
  4696  0023D6  0E00               	movlw	0
  4697  0023D8  201A               	addwfc	?___awdiv+1,w,c
  4698  0023DA  6E22               	movwf	___wmul@multiplier+1,c
  4699  0023DC  0E00               	movlw	0
  4700  0023DE  6E24               	movwf	___wmul@multiplicand+1,c
  4701  0023E0  0E03               	movlw	3
  4702  0023E2  6E23               	movwf	___wmul@multiplicand,c
  4703  0023E4  EC63  F01A         	call	___wmul	;wreg free
  4704  0023E8  0E50               	movlw	low __npowers_
  4705  0023EA  2421               	addwf	?___wmul,w,c
  4706  0023EC  6EF6               	movwf	tblptrl,c
  4707  0023EE  0E10               	movlw	high __npowers_
  4708  0023F0  2022               	addwfc	?___wmul+1,w,c
  4709  0023F2  6EF7               	movwf	tblptrh,c
  4710  0023F4                     	if	0	;There are less than 3 active tblptr bytes
  4711  0023F4                     	endif
  4712  0023F4  0009               	tblrd		*+
  4713  0023F6  CFF5 F027          	movff	tablat,___ftmul@f1
  4714  0023FA  0009               	tblrd		*+
  4715  0023FC  CFF5 F028          	movff	tablat,___ftmul@f1+1
  4716  002400  000A               	tblrd		*-
  4717  002402  CFF5 F029          	movff	tablat,___ftmul@f1+2
  4718  002406  ECEC  F014         	call	___ftmul	;wreg free
  4719  00240A  C027  F03C         	movff	?___ftmul,_fround$1797
  4720  00240E  C028  F03D         	movff	?___ftmul+1,_fround$1797+1
  4721  002412  C029  F03E         	movff	?___ftmul+2,_fround$1797+2
  4722                           
  4723                           ;doprnt.c: 416: return 0.5 * _npowers_[prec/10+9] * _npowers_[prec%10];
  4724  002416  C03C  F027         	movff	_fround$1797,___ftmul@f1
  4725  00241A  C03D  F028         	movff	_fround$1797+1,___ftmul@f1+1
  4726  00241E  C03E  F029         	movff	_fround$1797+2,___ftmul@f1+2
  4727  002422  0E00               	movlw	0
  4728  002424  6E2A               	movwf	___ftmul@f2,c
  4729  002426  0E00               	movlw	0
  4730  002428  6E2B               	movwf	___ftmul@f2+1,c
  4731  00242A  0E3F               	movlw	63
  4732  00242C  6E2C               	movwf	___ftmul@f2+2,c
  4733  00242E  ECEC  F014         	call	___ftmul	;wreg free
  4734  002432  C027  F036         	movff	?___ftmul,?_fround
  4735  002436  C028  F037         	movff	?___ftmul+1,?_fround+1
  4736  00243A  C029  F038         	movff	?___ftmul+2,?_fround+2
  4737  00243E  0012               	return	
  4738  002440                     l351:
  4739                           
  4740                           ;doprnt.c: 417: return 0.5 * _npowers_[prec];
  4741  002440  503F               	movf	fround@prec,w,c
  4742  002442  0D03               	mullw	3
  4743  002444  0E50               	movlw	low __npowers_
  4744  002446  24F3               	addwf	prodl,w,c
  4745  002448  6EF6               	movwf	tblptrl,c
  4746  00244A  0E10               	movlw	high __npowers_
  4747  00244C  20F4               	addwfc	prodh,w,c
  4748  00244E  6EF7               	movwf	tblptrh,c
  4749  002450                     	if	0	;There are less than 3 active tblptr bytes
  4750  002450                     	endif
  4751  002450  0009               	tblrd		*+
  4752  002452  CFF5 F027          	movff	tablat,___ftmul@f1
  4753  002456  0009               	tblrd		*+
  4754  002458  CFF5 F028          	movff	tablat,___ftmul@f1+1
  4755  00245C  000A               	tblrd		*-
  4756  00245E  CFF5 F029          	movff	tablat,___ftmul@f1+2
  4757  002462  0E00               	movlw	0
  4758  002464  6E2A               	movwf	___ftmul@f2,c
  4759  002466  0E00               	movlw	0
  4760  002468  6E2B               	movwf	___ftmul@f2+1,c
  4761  00246A  0E3F               	movlw	63
  4762  00246C  6E2C               	movwf	___ftmul@f2+2,c
  4763  00246E  ECEC  F014         	call	___ftmul	;wreg free
  4764  002472  C027  F036         	movff	?___ftmul,?_fround
  4765  002476  C028  F037         	movff	?___ftmul+1,?_fround+1
  4766  00247A  C029  F038         	movff	?___ftmul+2,?_fround+2
  4767  00247E  0012               	return	
  4768  002480                     __end_of_fround:
  4769                           	opt stack 0
  4770                           tblptru	equ	0xFF8
  4771                           tblptrh	equ	0xFF7
  4772                           tblptrl	equ	0xFF6
  4773                           tablat	equ	0xFF5
  4774                           prodh	equ	0xFF4
  4775                           prodl	equ	0xFF3
  4776                           intcon	equ	0xFF2
  4777                           intcon2	equ	0xFF1
  4778                           intcon3	equ	0xFF0
  4779                           postinc0	equ	0xFEE
  4780                           wreg	equ	0xFE8
  4781                           indf1	equ	0xFE7
  4782                           postdec1	equ	0xFE5
  4783                           fsr1h	equ	0xFE2
  4784                           fsr1l	equ	0xFE1
  4785                           indf2	equ	0xFDF
  4786                           postinc2	equ	0xFDE
  4787                           postdec2	equ	0xFDD
  4788                           fsr2h	equ	0xFDA
  4789                           fsr2l	equ	0xFD9
  4790                           status	equ	0xFD8
  4791                           
  4792 ;; *************** function ___wmul *****************
  4793 ;; Defined at:
  4794 ;;		line 15 in file "C:\Program Files (x86)\Microchip\xc8\v1.45\sources\common\Umul16.c"
  4795 ;; Parameters:    Size  Location     Type
  4796 ;;  multiplier      2   32[COMRAM] unsigned int 
  4797 ;;  multiplicand    2   34[COMRAM] unsigned int 
  4798 ;; Auto vars:     Size  Location     Type
  4799 ;;  product         2   36[COMRAM] unsigned int 
  4800 ;; Return value:  Size  Location     Type
  4801 ;;                  2   32[COMRAM] unsigned int 
  4802 ;; Registers used:
  4803 ;;		wreg, status,2, status,0, prodl, prodh
  4804 ;; Tracked objects:
  4805 ;;		On entry : 0/0
  4806 ;;		On exit  : 0/0
  4807 ;;		Unchanged: 0/0
  4808 ;; Data sizes:     COMRAM   BANK0   BANK1   BANK2   BANK3   BANK4   BANK5   BANK6   BANK7   BANK8   BANK9  BANK10  BANK1
      +1  BANK12  BANK13  BANK14  BANK15
  4809 ;;      Params:         4       0       0       0       0       0       0       0       0       0       0       0       
      +0       0       0       0       0
  4810 ;;      Locals:         2       0       0       0       0       0       0       0       0       0       0       0       
      +0       0       0       0       0
  4811 ;;      Temps:          0       0       0       0       0       0       0       0       0       0       0       0       
      +0       0       0       0       0
  4812 ;;      Totals:         6       0       0       0       0       0       0       0       0       0       0       0       
      +0       0       0       0       0
  4813 ;;Total ram usage:        6 bytes
  4814 ;; Hardware stack levels used:    1
  4815 ;; Hardware stack levels required when called:    1
  4816 ;; This function calls:
  4817 ;;		Nothing
  4818 ;; This function is called by:
  4819 ;;		_fround
  4820 ;;		_scale
  4821 ;;		_sprintf
  4822 ;;		_read_adc_voltage
  4823 ;; This function uses a non-reentrant model
  4824 ;;
  4825                           
  4826                           	psect	text9
  4827  0034C6                     __ptext9:
  4828                           	opt stack 0
  4829  0034C6                     ___wmul:
  4830                           	opt stack 26
  4831                           
  4832                           ;incstack = 0
  4833  0034C6  5021               	movf	___wmul@multiplier,w,c
  4834  0034C8  0223               	mulwf	___wmul@multiplicand,c
  4835  0034CA  CFF3 F025          	movff	prodl,___wmul@product
  4836  0034CE  CFF4 F026          	movff	prodh,___wmul@product+1
  4837  0034D2  5021               	movf	___wmul@multiplier,w,c
  4838  0034D4  0224               	mulwf	___wmul@multiplicand+1,c
  4839  0034D6  50F3               	movf	prodl,w,c
  4840  0034D8  2626               	addwf	___wmul@product+1,f,c
  4841  0034DA  5022               	movf	___wmul@multiplier+1,w,c
  4842  0034DC  0223               	mulwf	___wmul@multiplicand,c
  4843  0034DE  50F3               	movf	prodl,w,c
  4844  0034E0  2626               	addwf	___wmul@product+1,f,c
  4845  0034E2  C025  F021         	movff	___wmul@product,?___wmul
  4846  0034E6  C026  F022         	movff	___wmul@product+1,?___wmul+1
  4847  0034EA  0012               	return	
  4848  0034EC                     __end_of___wmul:
  4849                           	opt stack 0
  4850                           tblptru	equ	0xFF8
  4851                           tblptrh	equ	0xFF7
  4852                           tblptrl	equ	0xFF6
  4853                           tablat	equ	0xFF5
  4854                           prodh	equ	0xFF4
  4855                           prodl	equ	0xFF3
  4856                           intcon	equ	0xFF2
  4857                           intcon2	equ	0xFF1
  4858                           intcon3	equ	0xFF0
  4859                           postinc0	equ	0xFEE
  4860                           wreg	equ	0xFE8
  4861                           indf1	equ	0xFE7
  4862                           postdec1	equ	0xFE5
  4863                           fsr1h	equ	0xFE2
  4864                           fsr1l	equ	0xFE1
  4865                           indf2	equ	0xFDF
  4866                           postinc2	equ	0xFDE
  4867                           postdec2	equ	0xFDD
  4868                           fsr2h	equ	0xFDA
  4869                           fsr2l	equ	0xFD9
  4870                           status	equ	0xFD8
  4871                           
  4872 ;; *************** function ___ftmul *****************
  4873 ;; Defined at:
  4874 ;;		line 62 in file "C:\Program Files (x86)\Microchip\xc8\v1.45\sources\common\ftmul.c"
  4875 ;; Parameters:    Size  Location     Type
  4876 ;;  f1              3   38[COMRAM] float 
  4877 ;;  f2              3   41[COMRAM] float 
  4878 ;; Auto vars:     Size  Location     Type
  4879 ;;  f3_as_produc    3   48[COMRAM] unsigned um
  4880 ;;  sign            1   52[COMRAM] unsigned char 
  4881 ;;  cntr            1   51[COMRAM] unsigned char 
  4882 ;;  exp             1   47[COMRAM] unsigned char 
  4883 ;; Return value:  Size  Location     Type
  4884 ;;                  3   38[COMRAM] float 
  4885 ;; Registers used:
  4886 ;;		wreg, status,2, status,0, cstack
  4887 ;; Tracked objects:
  4888 ;;		On entry : 0/0
  4889 ;;		On exit  : 0/0
  4890 ;;		Unchanged: 0/0
  4891 ;; Data sizes:     COMRAM   BANK0   BANK1   BANK2   BANK3   BANK4   BANK5   BANK6   BANK7   BANK8   BANK9  BANK10  BANK1
      +1  BANK12  BANK13  BANK14  BANK15
  4892 ;;      Params:         6       0       0       0       0       0       0       0       0       0       0       0       
      +0       0       0       0       0
  4893 ;;      Locals:         6       0       0       0       0       0       0       0       0       0       0       0       
      +0       0       0       0       0
  4894 ;;      Temps:          3       0       0       0       0       0       0       0       0       0       0       0       
      +0       0       0       0       0
  4895 ;;      Totals:        15       0       0       0       0       0       0       0       0       0       0       0       
      +0       0       0       0       0
  4896 ;;Total ram usage:       15 bytes
  4897 ;; Hardware stack levels used:    1
  4898 ;; Hardware stack levels required when called:    2
  4899 ;; This function calls:
  4900 ;;		___ftpack
  4901 ;; This function is called by:
  4902 ;;		_main
  4903 ;;		_fround
  4904 ;;		_scale
  4905 ;;		_sprintf
  4906 ;;		_set_pwm1_percent
  4907 ;;		_set_pwm1_voltage
  4908 ;;		_set_pwm1_general
  4909 ;; This function uses a non-reentrant model
  4910 ;;
  4911                           
  4912                           	psect	text10
  4913  0029D8                     __ptext10:
  4914                           	opt stack 0
  4915  0029D8                     ___ftmul:
  4916                           	opt stack 25
  4917                           
  4918                           ;incstack = 0
  4919  0029D8  C029  F02D         	movff	___ftmul@f1+2,??___ftmul
  4920  0029DC  6A2E               	clrf	(??___ftmul+1)& (0+255),c
  4921  0029DE  6A2F               	clrf	(??___ftmul+2)& (0+255),c
  4922  0029E0  3428               	rlcf	___ftmul@f1+1,w,c
  4923  0029E2  362D               	rlcf	??___ftmul& (0+255),f,c
  4924  0029E4  E301               	bnc	u4011
  4925  0029E6  802E               	bsf	(??___ftmul+1)& (0+255),0,c
  4926  0029E8                     u4011:
  4927  0029E8  502D               	movf	??___ftmul,w,c
  4928  0029EA  6E30               	movwf	___ftmul@exp,c
  4929  0029EC  5030               	movf	___ftmul@exp,w,c
  4930  0029EE  A4D8               	btfss	status,2,c
  4931  0029F0  D007               	goto	l787
  4932  0029F2  0E00               	movlw	0
  4933  0029F4  6E27               	movwf	?___ftmul,c
  4934  0029F6  0E00               	movlw	0
  4935  0029F8  6E28               	movwf	?___ftmul+1,c
  4936  0029FA  0E00               	movlw	0
  4937  0029FC  6E29               	movwf	?___ftmul+2,c
  4938  0029FE  0012               	return	
  4939  002A00                     l787:
  4940  002A00  C02C  F02D         	movff	___ftmul@f2+2,??___ftmul
  4941  002A04  6A2E               	clrf	(??___ftmul+1)& (0+255),c
  4942  002A06  6A2F               	clrf	(??___ftmul+2)& (0+255),c
  4943  002A08  342B               	rlcf	___ftmul@f2+1,w,c
  4944  002A0A  362D               	rlcf	??___ftmul& (0+255),f,c
  4945  002A0C  E301               	bnc	u4031
  4946  002A0E  802E               	bsf	(??___ftmul+1)& (0+255),0,c
  4947  002A10                     u4031:
  4948  002A10  502D               	movf	??___ftmul,w,c
  4949  002A12  6E35               	movwf	___ftmul@sign,c
  4950  002A14  5035               	movf	___ftmul@sign,w,c
  4951  002A16  A4D8               	btfss	status,2,c
  4952  002A18  D007               	goto	l789
  4953  002A1A  0E00               	movlw	0
  4954  002A1C  6E27               	movwf	?___ftmul,c
  4955  002A1E  0E00               	movlw	0
  4956  002A20  6E28               	movwf	?___ftmul+1,c
  4957  002A22  0E00               	movlw	0
  4958  002A24  6E29               	movwf	?___ftmul+2,c
  4959  002A26  0012               	return	
  4960  002A28                     l789:
  4961  002A28  5035               	movf	___ftmul@sign,w,c
  4962  002A2A  0F7B               	addlw	123
  4963  002A2C  2630               	addwf	___ftmul@exp,f,c
  4964  002A2E  C029  F035         	movff	___ftmul@f1+2,___ftmul@sign
  4965  002A32  502C               	movf	___ftmul@f2+2,w,c
  4966  002A34  1A35               	xorwf	___ftmul@sign,f,c
  4967  002A36  0E80               	movlw	128
  4968  002A38  1635               	andwf	___ftmul@sign,f,c
  4969  002A3A  8E28               	bsf	___ftmul@f1+1,7,c
  4970  002A3C  8E2B               	bsf	___ftmul@f2+1,7,c
  4971  002A3E  0EFF               	movlw	255
  4972  002A40  162A               	andwf	___ftmul@f2,f,c
  4973  002A42  0EFF               	movlw	255
  4974  002A44  162B               	andwf	___ftmul@f2+1,f,c
  4975  002A46  0E00               	movlw	0
  4976  002A48  162C               	andwf	___ftmul@f2+2,f,c
  4977  002A4A  0E00               	movlw	0
  4978  002A4C  6E31               	movwf	___ftmul@f3_as_product,c
  4979  002A4E  0E00               	movlw	0
  4980  002A50  6E32               	movwf	___ftmul@f3_as_product+1,c
  4981  002A52  0E00               	movlw	0
  4982  002A54  6E33               	movwf	___ftmul@f3_as_product+2,c
  4983  002A56  0E07               	movlw	7
  4984  002A58  6E34               	movwf	___ftmul@cntr,c
  4985  002A5A  A027               	btfss	___ftmul@f1,0,c
  4986  002A5C  D006               	goto	l791
  4987  002A5E  502A               	movf	___ftmul@f2,w,c
  4988  002A60  2631               	addwf	___ftmul@f3_as_product,f,c
  4989  002A62  502B               	movf	___ftmul@f2+1,w,c
  4990  002A64  2232               	addwfc	___ftmul@f3_as_product+1,f,c
  4991  002A66  502C               	movf	___ftmul@f2+2,w,c
  4992  002A68  2233               	addwfc	___ftmul@f3_as_product+2,f,c
  4993  002A6A                     l791:
  4994  002A6A  90D8               	bcf	status,0,c
  4995  002A6C  3229               	rrcf	___ftmul@f1+2,f,c
  4996  002A6E  3228               	rrcf	___ftmul@f1+1,f,c
  4997  002A70  3227               	rrcf	___ftmul@f1,f,c
  4998  002A72  90D8               	bcf	status,0,c
  4999  002A74  362A               	rlcf	___ftmul@f2,f,c
  5000  002A76  362B               	rlcf	___ftmul@f2+1,f,c
  5001  002A78  362C               	rlcf	___ftmul@f2+2,f,c
  5002  002A7A  2E34               	decfsz	___ftmul@cntr,f,c
  5003  002A7C  D7EE               	goto	l790
  5004  002A7E  0E09               	movlw	9
  5005  002A80  6E34               	movwf	___ftmul@cntr,c
  5006  002A82  A027               	btfss	___ftmul@f1,0,c
  5007  002A84  D006               	goto	l794
  5008  002A86  502A               	movf	___ftmul@f2,w,c
  5009  002A88  2631               	addwf	___ftmul@f3_as_product,f,c
  5010  002A8A  502B               	movf	___ftmul@f2+1,w,c
  5011  002A8C  2232               	addwfc	___ftmul@f3_as_product+1,f,c
  5012  002A8E  502C               	movf	___ftmul@f2+2,w,c
  5013  002A90  2233               	addwfc	___ftmul@f3_as_product+2,f,c
  5014  002A92                     l794:
  5015  002A92  90D8               	bcf	status,0,c
  5016  002A94  3229               	rrcf	___ftmul@f1+2,f,c
  5017  002A96  3228               	rrcf	___ftmul@f1+1,f,c
  5018  002A98  3227               	rrcf	___ftmul@f1,f,c
  5019  002A9A  90D8               	bcf	status,0,c
  5020  002A9C  3233               	rrcf	___ftmul@f3_as_product+2,f,c
  5021  002A9E  3232               	rrcf	___ftmul@f3_as_product+1,f,c
  5022  002AA0  3231               	rrcf	___ftmul@f3_as_product,f,c
  5023  002AA2  2E34               	decfsz	___ftmul@cntr,f,c
  5024  002AA4  D7EE               	goto	l793
  5025  002AA6  C031  F013         	movff	___ftmul@f3_as_product,___ftpack@arg
  5026  002AAA  C032  F014         	movff	___ftmul@f3_as_product+1,___ftpack@arg+1
  5027  002AAE  C033  F015         	movff	___ftmul@f3_as_product+2,___ftpack@arg+2
  5028  002AB2  C030  F016         	movff	___ftmul@exp,___ftpack@exp
  5029  002AB6  C035  F017         	movff	___ftmul@sign,___ftpack@sign
  5030  002ABA  EC1B  F017         	call	___ftpack	;wreg free
  5031  002ABE  C013  F027         	movff	?___ftpack,?___ftmul
  5032  002AC2  C014  F028         	movff	?___ftpack+1,?___ftmul+1
  5033  002AC6  C015  F029         	movff	?___ftpack+2,?___ftmul+2
  5034  002ACA  0012               	return	
  5035  002ACC                     __end_of___ftmul:
  5036                           	opt stack 0
  5037                           tblptru	equ	0xFF8
  5038                           tblptrh	equ	0xFF7
  5039                           tblptrl	equ	0xFF6
  5040                           tablat	equ	0xFF5
  5041                           prodh	equ	0xFF4
  5042                           prodl	equ	0xFF3
  5043                           intcon	equ	0xFF2
  5044                           intcon2	equ	0xFF1
  5045                           intcon3	equ	0xFF0
  5046                           postinc0	equ	0xFEE
  5047                           wreg	equ	0xFE8
  5048                           indf1	equ	0xFE7
  5049                           postdec1	equ	0xFE5
  5050                           fsr1h	equ	0xFE2
  5051                           fsr1l	equ	0xFE1
  5052                           indf2	equ	0xFDF
  5053                           postinc2	equ	0xFDE
  5054                           postdec2	equ	0xFDD
  5055                           fsr2h	equ	0xFDA
  5056                           fsr2l	equ	0xFD9
  5057                           status	equ	0xFD8
  5058                           
  5059 ;; *************** function ___awmod *****************
  5060 ;; Defined at:
  5061 ;;		line 8 in file "C:\Program Files (x86)\Microchip\xc8\v1.45\sources\common\awmod.c"
  5062 ;; Parameters:    Size  Location     Type
  5063 ;;  dividend        2   18[COMRAM] int 
  5064 ;;  divisor         2   20[COMRAM] int 
  5065 ;; Auto vars:     Size  Location     Type
  5066 ;;  sign            1   23[COMRAM] unsigned char 
  5067 ;;  counter         1   22[COMRAM] unsigned char 
  5068 ;; Return value:  Size  Location     Type
  5069 ;;                  2   18[COMRAM] int 
  5070 ;; Registers used:
  5071 ;;		wreg, status,2, status,0
  5072 ;; Tracked objects:
  5073 ;;		On entry : 0/0
  5074 ;;		On exit  : 0/0
  5075 ;;		Unchanged: 0/0
  5076 ;; Data sizes:     COMRAM   BANK0   BANK1   BANK2   BANK3   BANK4   BANK5   BANK6   BANK7   BANK8   BANK9  BANK10  BANK1
      +1  BANK12  BANK13  BANK14  BANK15
  5077 ;;      Params:         4       0       0       0       0       0       0       0       0       0       0       0       
      +0       0       0       0       0
  5078 ;;      Locals:         2       0       0       0       0       0       0       0       0       0       0       0       
      +0       0       0       0       0
  5079 ;;      Temps:          0       0       0       0       0       0       0       0       0       0       0       0       
      +0       0       0       0       0
  5080 ;;      Totals:         6       0       0       0       0       0       0       0       0       0       0       0       
      +0       0       0       0       0
  5081 ;;Total ram usage:        6 bytes
  5082 ;; Hardware stack levels used:    1
  5083 ;; Hardware stack levels required when called:    1
  5084 ;; This function calls:
  5085 ;;		Nothing
  5086 ;; This function is called by:
  5087 ;;		_fround
  5088 ;;		_scale
  5089 ;; This function uses a non-reentrant model
  5090 ;;
  5091                           
  5092                           	psect	text11
  5093  00307A                     __ptext11:
  5094                           	opt stack 0
  5095  00307A                     ___awmod:
  5096                           	opt stack 26
  5097                           
  5098                           ;incstack = 0
  5099  00307A  0E00               	movlw	0
  5100  00307C  6E18               	movwf	___awmod@sign,c
  5101  00307E  AE14               	btfss	___awmod@dividend+1,7,c
  5102  003080  D006               	goto	l640
  5103  003082  6C13               	negf	___awmod@dividend,c
  5104  003084  1E14               	comf	___awmod@dividend+1,f,c
  5105  003086  B0D8               	btfsc	status,0,c
  5106  003088  2A14               	incf	___awmod@dividend+1,f,c
  5107  00308A  0E01               	movlw	1
  5108  00308C  6E18               	movwf	___awmod@sign,c
  5109  00308E                     l640:
  5110  00308E  AE16               	btfss	___awmod@divisor+1,7,c
  5111  003090  D004               	goto	l641
  5112  003092  6C15               	negf	___awmod@divisor,c
  5113  003094  1E16               	comf	___awmod@divisor+1,f,c
  5114  003096  B0D8               	btfsc	status,0,c
  5115  003098  2A16               	incf	___awmod@divisor+1,f,c
  5116  00309A                     l641:
  5117  00309A  5015               	movf	___awmod@divisor,w,c
  5118  00309C  1016               	iorwf	___awmod@divisor+1,w,c
  5119  00309E  B4D8               	btfsc	status,2,c
  5120  0030A0  D018               	goto	l648
  5121  0030A2  0E01               	movlw	1
  5122  0030A4  6E17               	movwf	___awmod@counter,c
  5123  0030A6  D004               	goto	l643
  5124  0030A8  90D8               	bcf	status,0,c
  5125  0030AA  3615               	rlcf	___awmod@divisor,f,c
  5126  0030AC  3616               	rlcf	___awmod@divisor+1,f,c
  5127  0030AE  2A17               	incf	___awmod@counter,f,c
  5128  0030B0                     l643:
  5129  0030B0  AE16               	btfss	___awmod@divisor+1,7,c
  5130  0030B2  D7FA               	goto	l644
  5131  0030B4                     u4160:
  5132  0030B4  5015               	movf	___awmod@divisor,w,c
  5133  0030B6  5C13               	subwf	___awmod@dividend,w,c
  5134  0030B8  5016               	movf	___awmod@divisor+1,w,c
  5135  0030BA  5814               	subwfb	___awmod@dividend+1,w,c
  5136  0030BC  A0D8               	btfss	status,0,c
  5137  0030BE  D004               	goto	l647
  5138  0030C0  5015               	movf	___awmod@divisor,w,c
  5139  0030C2  5E13               	subwf	___awmod@dividend,f,c
  5140  0030C4  5016               	movf	___awmod@divisor+1,w,c
  5141  0030C6  5A14               	subwfb	___awmod@dividend+1,f,c
  5142  0030C8                     l647:
  5143  0030C8  90D8               	bcf	status,0,c
  5144  0030CA  3216               	rrcf	___awmod@divisor+1,f,c
  5145  0030CC  3215               	rrcf	___awmod@divisor,f,c
  5146  0030CE  2E17               	decfsz	___awmod@counter,f,c
  5147  0030D0  D7F1               	goto	u4160
  5148  0030D2                     l648:
  5149  0030D2  5018               	movf	___awmod@sign,w,c
  5150  0030D4  B4D8               	btfsc	status,2,c
  5151  0030D6  D004               	goto	l649
  5152  0030D8  6C13               	negf	___awmod@dividend,c
  5153  0030DA  1E14               	comf	___awmod@dividend+1,f,c
  5154  0030DC  B0D8               	btfsc	status,0,c
  5155  0030DE  2A14               	incf	___awmod@dividend+1,f,c
  5156  0030E0                     l649:
  5157  0030E0  C013  F013         	movff	___awmod@dividend,?___awmod
  5158  0030E4  C014  F014         	movff	___awmod@dividend+1,?___awmod+1
  5159  0030E8  0012               	return	
  5160  0030EA                     __end_of___awmod:
  5161                           	opt stack 0
  5162                           tblptru	equ	0xFF8
  5163                           tblptrh	equ	0xFF7
  5164                           tblptrl	equ	0xFF6
  5165                           tablat	equ	0xFF5
  5166                           prodh	equ	0xFF4
  5167                           prodl	equ	0xFF3
  5168                           intcon	equ	0xFF2
  5169                           intcon2	equ	0xFF1
  5170                           intcon3	equ	0xFF0
  5171                           postinc0	equ	0xFEE
  5172                           wreg	equ	0xFE8
  5173                           indf1	equ	0xFE7
  5174                           postdec1	equ	0xFE5
  5175                           fsr1h	equ	0xFE2
  5176                           fsr1l	equ	0xFE1
  5177                           indf2	equ	0xFDF
  5178                           postinc2	equ	0xFDE
  5179                           postdec2	equ	0xFDD
  5180                           fsr2h	equ	0xFDA
  5181                           fsr2l	equ	0xFD9
  5182                           status	equ	0xFD8
  5183                           
  5184 ;; *************** function ___awdiv *****************
  5185 ;; Defined at:
  5186 ;;		line 8 in file "C:\Program Files (x86)\Microchip\xc8\v1.45\sources\common\awdiv.c"
  5187 ;; Parameters:    Size  Location     Type
  5188 ;;  dividend        2   24[COMRAM] int 
  5189 ;;  divisor         2   26[COMRAM] int 
  5190 ;; Auto vars:     Size  Location     Type
  5191 ;;  quotient        2   30[COMRAM] int 
  5192 ;;  sign            1   29[COMRAM] unsigned char 
  5193 ;;  counter         1   28[COMRAM] unsigned char 
  5194 ;; Return value:  Size  Location     Type
  5195 ;;                  2   24[COMRAM] int 
  5196 ;; Registers used:
  5197 ;;		wreg, status,2, status,0
  5198 ;; Tracked objects:
  5199 ;;		On entry : 0/0
  5200 ;;		On exit  : 0/0
  5201 ;;		Unchanged: 0/0
  5202 ;; Data sizes:     COMRAM   BANK0   BANK1   BANK2   BANK3   BANK4   BANK5   BANK6   BANK7   BANK8   BANK9  BANK10  BANK1
      +1  BANK12  BANK13  BANK14  BANK15
  5203 ;;      Params:         4       0       0       0       0       0       0       0       0       0       0       0       
      +0       0       0       0       0
  5204 ;;      Locals:         4       0       0       0       0       0       0       0       0       0       0       0       
      +0       0       0       0       0
  5205 ;;      Temps:          0       0       0       0       0       0       0       0       0       0       0       0       
      +0       0       0       0       0
  5206 ;;      Totals:         8       0       0       0       0       0       0       0       0       0       0       0       
      +0       0       0       0       0
  5207 ;;Total ram usage:        8 bytes
  5208 ;; Hardware stack levels used:    1
  5209 ;; Hardware stack levels required when called:    1
  5210 ;; This function calls:
  5211 ;;		Nothing
  5212 ;; This function is called by:
  5213 ;;		_fround
  5214 ;;		_scale
  5215 ;;		_sprintf
  5216 ;; This function uses a non-reentrant model
  5217 ;;
  5218                           
  5219                           	psect	text12
  5220  002F74                     __ptext12:
  5221                           	opt stack 0
  5222  002F74                     ___awdiv:
  5223                           	opt stack 26
  5224                           
  5225                           ;incstack = 0
  5226  002F74  0E00               	movlw	0
  5227  002F76  6E1E               	movwf	___awdiv@sign,c
  5228  002F78  AE1C               	btfss	___awdiv@divisor+1,7,c
  5229  002F7A  D006               	goto	l627
  5230  002F7C  6C1B               	negf	___awdiv@divisor,c
  5231  002F7E  1E1C               	comf	___awdiv@divisor+1,f,c
  5232  002F80  B0D8               	btfsc	status,0,c
  5233  002F82  2A1C               	incf	___awdiv@divisor+1,f,c
  5234  002F84  0E01               	movlw	1
  5235  002F86  6E1E               	movwf	___awdiv@sign,c
  5236  002F88                     l627:
  5237  002F88  AE1A               	btfss	___awdiv@dividend+1,7,c
  5238  002F8A  D006               	goto	l628
  5239  002F8C  6C19               	negf	___awdiv@dividend,c
  5240  002F8E  1E1A               	comf	___awdiv@dividend+1,f,c
  5241  002F90  B0D8               	btfsc	status,0,c
  5242  002F92  2A1A               	incf	___awdiv@dividend+1,f,c
  5243  002F94  0E01               	movlw	1
  5244  002F96  1A1E               	xorwf	___awdiv@sign,f,c
  5245  002F98                     l628:
  5246  002F98  0E00               	movlw	0
  5247  002F9A  6E20               	movwf	___awdiv@quotient+1,c
  5248  002F9C  0E00               	movlw	0
  5249  002F9E  6E1F               	movwf	___awdiv@quotient,c
  5250  002FA0  501B               	movf	___awdiv@divisor,w,c
  5251  002FA2  101C               	iorwf	___awdiv@divisor+1,w,c
  5252  002FA4  B4D8               	btfsc	status,2,c
  5253  002FA6  D01C               	goto	l635
  5254  002FA8  0E01               	movlw	1
  5255  002FAA  6E1D               	movwf	___awdiv@counter,c
  5256  002FAC  D004               	goto	l630
  5257  002FAE  90D8               	bcf	status,0,c
  5258  002FB0  361B               	rlcf	___awdiv@divisor,f,c
  5259  002FB2  361C               	rlcf	___awdiv@divisor+1,f,c
  5260  002FB4  2A1D               	incf	___awdiv@counter,f,c
  5261  002FB6                     l630:
  5262  002FB6  AE1C               	btfss	___awdiv@divisor+1,7,c
  5263  002FB8  D7FA               	goto	l631
  5264  002FBA                     u4100:
  5265  002FBA  90D8               	bcf	status,0,c
  5266  002FBC  361F               	rlcf	___awdiv@quotient,f,c
  5267  002FBE  3620               	rlcf	___awdiv@quotient+1,f,c
  5268  002FC0  501B               	movf	___awdiv@divisor,w,c
  5269  002FC2  5C19               	subwf	___awdiv@dividend,w,c
  5270  002FC4  501C               	movf	___awdiv@divisor+1,w,c
  5271  002FC6  581A               	subwfb	___awdiv@dividend+1,w,c
  5272  002FC8  A0D8               	btfss	status,0,c
  5273  002FCA  D005               	goto	l634
  5274  002FCC  501B               	movf	___awdiv@divisor,w,c
  5275  002FCE  5E19               	subwf	___awdiv@dividend,f,c
  5276  002FD0  501C               	movf	___awdiv@divisor+1,w,c
  5277  002FD2  5A1A               	subwfb	___awdiv@dividend+1,f,c
  5278  002FD4  801F               	bsf	___awdiv@quotient,0,c
  5279  002FD6                     l634:
  5280  002FD6  90D8               	bcf	status,0,c
  5281  002FD8  321C               	rrcf	___awdiv@divisor+1,f,c
  5282  002FDA  321B               	rrcf	___awdiv@divisor,f,c
  5283  002FDC  2E1D               	decfsz	___awdiv@counter,f,c
  5284  002FDE  D7ED               	goto	u4100
  5285  002FE0                     l635:
  5286  002FE0  501E               	movf	___awdiv@sign,w,c
  5287  002FE2  B4D8               	btfsc	status,2,c
  5288  002FE4  D004               	goto	l636
  5289  002FE6  6C1F               	negf	___awdiv@quotient,c
  5290  002FE8  1E20               	comf	___awdiv@quotient+1,f,c
  5291  002FEA  B0D8               	btfsc	status,0,c
  5292  002FEC  2A20               	incf	___awdiv@quotient+1,f,c
  5293  002FEE                     l636:
  5294  002FEE  C01F  F019         	movff	___awdiv@quotient,?___awdiv
  5295  002FF2  C020  F01A         	movff	___awdiv@quotient+1,?___awdiv+1
  5296  002FF6  0012               	return	
  5297  002FF8                     __end_of___awdiv:
  5298                           	opt stack 0
  5299                           tblptru	equ	0xFF8
  5300                           tblptrh	equ	0xFF7
  5301                           tblptrl	equ	0xFF6
  5302                           tablat	equ	0xFF5
  5303                           prodh	equ	0xFF4
  5304                           prodl	equ	0xFF3
  5305                           intcon	equ	0xFF2
  5306                           intcon2	equ	0xFF1
  5307                           intcon3	equ	0xFF0
  5308                           postinc0	equ	0xFEE
  5309                           wreg	equ	0xFE8
  5310                           indf1	equ	0xFE7
  5311                           postdec1	equ	0xFE5
  5312                           fsr1h	equ	0xFE2
  5313                           fsr1l	equ	0xFE1
  5314                           indf2	equ	0xFDF
  5315                           postinc2	equ	0xFDE
  5316                           postdec2	equ	0xFDD
  5317                           fsr2h	equ	0xFDA
  5318                           fsr2l	equ	0xFD9
  5319                           status	equ	0xFD8
  5320                           
  5321 ;; *************** function __tdiv_to_l_ *****************
  5322 ;; Defined at:
  5323 ;;		line 60 in file "C:\Program Files (x86)\Microchip\xc8\v1.45\sources\common\ftdivl.c"
  5324 ;; Parameters:    Size  Location     Type
  5325 ;;  f1              3   18[COMRAM] float 
  5326 ;;  f2              3   21[COMRAM] float 
  5327 ;; Auto vars:     Size  Location     Type
  5328 ;;  quot            4   27[COMRAM] unsigned long 
  5329 ;;  exp1            1   32[COMRAM] unsigned char 
  5330 ;;  cntr            1   31[COMRAM] unsigned char 
  5331 ;; Return value:  Size  Location     Type
  5332 ;;                  4   18[COMRAM] unsigned long 
  5333 ;; Registers used:
  5334 ;;		wreg, status,2, status,0
  5335 ;; Tracked objects:
  5336 ;;		On entry : 0/0
  5337 ;;		On exit  : 0/0
  5338 ;;		Unchanged: 0/0
  5339 ;; Data sizes:     COMRAM   BANK0   BANK1   BANK2   BANK3   BANK4   BANK5   BANK6   BANK7   BANK8   BANK9  BANK10  BANK1
      +1  BANK12  BANK13  BANK14  BANK15
  5340 ;;      Params:         6       0       0       0       0       0       0       0       0       0       0       0       
      +0       0       0       0       0
  5341 ;;      Locals:         6       0       0       0       0       0       0       0       0       0       0       0       
      +0       0       0       0       0
  5342 ;;      Temps:          3       0       0       0       0       0       0       0       0       0       0       0       
      +0       0       0       0       0
  5343 ;;      Totals:        15       0       0       0       0       0       0       0       0       0       0       0       
      +0       0       0       0       0
  5344 ;;Total ram usage:       15 bytes
  5345 ;; Hardware stack levels used:    1
  5346 ;; Hardware stack levels required when called:    1
  5347 ;; This function calls:
  5348 ;;		Nothing
  5349 ;; This function is called by:
  5350 ;;		_sprintf
  5351 ;; This function uses a non-reentrant model
  5352 ;;
  5353                           
  5354                           	psect	text13
  5355  00277E                     __ptext13:
  5356                           	opt stack 0
  5357  00277E                     __tdiv_to_l_:
  5358                           	opt stack 27
  5359                           
  5360                           ;incstack = 0
  5361  00277E  C015  F019         	movff	__tdiv_to_l_@f1+2,??__tdiv_to_l_
  5362  002782  6A1A               	clrf	(??__tdiv_to_l_+1)& (0+255),c
  5363  002784  6A1B               	clrf	(??__tdiv_to_l_+2)& (0+255),c
  5364  002786  3414               	rlcf	__tdiv_to_l_@f1+1,w,c
  5365  002788  3619               	rlcf	??__tdiv_to_l_& (0+255),f,c
  5366  00278A  E301               	bnc	u4281
  5367  00278C  801A               	bsf	(??__tdiv_to_l_+1)& (0+255),0,c
  5368  00278E                     u4281:
  5369  00278E  5019               	movf	??__tdiv_to_l_,w,c
  5370  002790  6E21               	movwf	__tdiv_to_l_@exp1,c
  5371  002792  5021               	movf	__tdiv_to_l_@exp1,w,c
  5372  002794  A4D8               	btfss	status,2,c
  5373  002796  D009               	goto	l763
  5374  002798  0E00               	movlw	0
  5375  00279A  6E13               	movwf	?__tdiv_to_l_,c
  5376  00279C  0E00               	movlw	0
  5377  00279E  6E14               	movwf	?__tdiv_to_l_+1,c
  5378  0027A0  0E00               	movlw	0
  5379  0027A2  6E15               	movwf	?__tdiv_to_l_+2,c
  5380  0027A4  0E00               	movlw	0
  5381  0027A6  6E16               	movwf	?__tdiv_to_l_+3,c
  5382  0027A8  0012               	return	
  5383  0027AA                     l763:
  5384  0027AA  C018  F019         	movff	__tdiv_to_l_@f2+2,??__tdiv_to_l_
  5385  0027AE  6A1A               	clrf	(??__tdiv_to_l_+1)& (0+255),c
  5386  0027B0  6A1B               	clrf	(??__tdiv_to_l_+2)& (0+255),c
  5387  0027B2  3417               	rlcf	__tdiv_to_l_@f2+1,w,c
  5388  0027B4  3619               	rlcf	??__tdiv_to_l_& (0+255),f,c
  5389  0027B6  E301               	bnc	u4301
  5390  0027B8  801A               	bsf	(??__tdiv_to_l_+1)& (0+255),0,c
  5391  0027BA                     u4301:
  5392  0027BA  5019               	movf	??__tdiv_to_l_,w,c
  5393  0027BC  6E20               	movwf	__tdiv_to_l_@cntr,c
  5394  0027BE  5020               	movf	__tdiv_to_l_@cntr,w,c
  5395  0027C0  A4D8               	btfss	status,2,c
  5396  0027C2  D009               	goto	l765
  5397  0027C4  0E00               	movlw	0
  5398  0027C6  6E13               	movwf	?__tdiv_to_l_,c
  5399  0027C8  0E00               	movlw	0
  5400  0027CA  6E14               	movwf	?__tdiv_to_l_+1,c
  5401  0027CC  0E00               	movlw	0
  5402  0027CE  6E15               	movwf	?__tdiv_to_l_+2,c
  5403  0027D0  0E00               	movlw	0
  5404  0027D2  6E16               	movwf	?__tdiv_to_l_+3,c
  5405  0027D4  0012               	return	
  5406  0027D6                     l765:
  5407  0027D6  8E14               	bsf	__tdiv_to_l_@f1+1,7,c
  5408  0027D8  0EFF               	movlw	255
  5409  0027DA  1613               	andwf	__tdiv_to_l_@f1,f,c
  5410  0027DC  0EFF               	movlw	255
  5411  0027DE  1614               	andwf	__tdiv_to_l_@f1+1,f,c
  5412  0027E0  0E00               	movlw	0
  5413  0027E2  1615               	andwf	__tdiv_to_l_@f1+2,f,c
  5414  0027E4  8E17               	bsf	__tdiv_to_l_@f2+1,7,c
  5415  0027E6  0EFF               	movlw	255
  5416  0027E8  1616               	andwf	__tdiv_to_l_@f2,f,c
  5417  0027EA  0EFF               	movlw	255
  5418  0027EC  1617               	andwf	__tdiv_to_l_@f2+1,f,c
  5419  0027EE  0E00               	movlw	0
  5420  0027F0  1618               	andwf	__tdiv_to_l_@f2+2,f,c
  5421  0027F2  0E00               	movlw	0
  5422  0027F4  6E1C               	movwf	__tdiv_to_l_@quot,c
  5423  0027F6  0E00               	movlw	0
  5424  0027F8  6E1D               	movwf	__tdiv_to_l_@quot+1,c
  5425  0027FA  0E00               	movlw	0
  5426  0027FC  6E1E               	movwf	__tdiv_to_l_@quot+2,c
  5427  0027FE  0E00               	movlw	0
  5428  002800  6E1F               	movwf	__tdiv_to_l_@quot+3,c
  5429  002802  0E7F               	movlw	127
  5430  002804  5E21               	subwf	__tdiv_to_l_@exp1,f,c
  5431  002806  5020               	movf	__tdiv_to_l_@cntr,w,c
  5432  002808  0F98               	addlw	152
  5433  00280A  5E21               	subwf	__tdiv_to_l_@exp1,f,c
  5434  00280C  0E18               	movlw	24
  5435  00280E  6E20               	movwf	__tdiv_to_l_@cntr,c
  5436  002810                     l766:
  5437  002810  90D8               	bcf	status,0,c
  5438  002812  361C               	rlcf	__tdiv_to_l_@quot,f,c
  5439  002814  361D               	rlcf	__tdiv_to_l_@quot+1,f,c
  5440  002816  361E               	rlcf	__tdiv_to_l_@quot+2,f,c
  5441  002818  361F               	rlcf	__tdiv_to_l_@quot+3,f,c
  5442  00281A  5016               	movf	__tdiv_to_l_@f2,w,c
  5443  00281C  5C13               	subwf	__tdiv_to_l_@f1,w,c
  5444  00281E  5017               	movf	__tdiv_to_l_@f2+1,w,c
  5445  002820  5814               	subwfb	__tdiv_to_l_@f1+1,w,c
  5446  002822  5018               	movf	__tdiv_to_l_@f2+2,w,c
  5447  002824  5815               	subwfb	__tdiv_to_l_@f1+2,w,c
  5448  002826  A0D8               	btfss	status,0,c
  5449  002828  D007               	goto	l767
  5450  00282A  5016               	movf	__tdiv_to_l_@f2,w,c
  5451  00282C  5E13               	subwf	__tdiv_to_l_@f1,f,c
  5452  00282E  5017               	movf	__tdiv_to_l_@f2+1,w,c
  5453  002830  5A14               	subwfb	__tdiv_to_l_@f1+1,f,c
  5454  002832  5018               	movf	__tdiv_to_l_@f2+2,w,c
  5455  002834  5A15               	subwfb	__tdiv_to_l_@f1+2,f,c
  5456  002836  801C               	bsf	__tdiv_to_l_@quot,0,c
  5457  002838                     l767:
  5458  002838  90D8               	bcf	status,0,c
  5459  00283A  3613               	rlcf	__tdiv_to_l_@f1,f,c
  5460  00283C  3614               	rlcf	__tdiv_to_l_@f1+1,f,c
  5461  00283E  3615               	rlcf	__tdiv_to_l_@f1+2,f,c
  5462  002840  2E20               	decfsz	__tdiv_to_l_@cntr,f,c
  5463  002842  D7E6               	goto	l766
  5464  002844  AE21               	btfss	__tdiv_to_l_@exp1,7,c
  5465  002846  D016               	goto	l769
  5466  002848  5021               	movf	__tdiv_to_l_@exp1,w,c
  5467  00284A  0A80               	xorlw	128
  5468  00284C  0F97               	addlw	151
  5469  00284E  B0D8               	btfsc	status,0,c
  5470  002850  D009               	goto	l770
  5471  002852  0E00               	movlw	0
  5472  002854  6E13               	movwf	?__tdiv_to_l_,c
  5473  002856  0E00               	movlw	0
  5474  002858  6E14               	movwf	?__tdiv_to_l_+1,c
  5475  00285A  0E00               	movlw	0
  5476  00285C  6E15               	movwf	?__tdiv_to_l_+2,c
  5477  00285E  0E00               	movlw	0
  5478  002860  6E16               	movwf	?__tdiv_to_l_+3,c
  5479  002862  0012               	return	
  5480  002864                     l770:
  5481  002864  90D8               	bcf	status,0,c
  5482  002866  321F               	rrcf	__tdiv_to_l_@quot+3,f,c
  5483  002868  321E               	rrcf	__tdiv_to_l_@quot+2,f,c
  5484  00286A  321D               	rrcf	__tdiv_to_l_@quot+1,f,c
  5485  00286C  321C               	rrcf	__tdiv_to_l_@quot,f,c
  5486  00286E  3E21               	incfsz	__tdiv_to_l_@exp1,f,c
  5487  002870  D7F9               	goto	l770
  5488  002872  D015               	goto	u4360
  5489  002874                     l769:
  5490  002874  0E17               	movlw	23
  5491  002876  6421               	cpfsgt	__tdiv_to_l_@exp1,c
  5492  002878  D00F               	goto	l775
  5493  00287A  0E00               	movlw	0
  5494  00287C  6E13               	movwf	?__tdiv_to_l_,c
  5495  00287E  0E00               	movlw	0
  5496  002880  6E14               	movwf	?__tdiv_to_l_+1,c
  5497  002882  0E00               	movlw	0
  5498  002884  6E15               	movwf	?__tdiv_to_l_+2,c
  5499  002886  0E00               	movlw	0
  5500  002888  6E16               	movwf	?__tdiv_to_l_+3,c
  5501  00288A  0012               	return	
  5502  00288C  90D8               	bcf	status,0,c
  5503  00288E  361C               	rlcf	__tdiv_to_l_@quot,f,c
  5504  002890  361D               	rlcf	__tdiv_to_l_@quot+1,f,c
  5505  002892  361E               	rlcf	__tdiv_to_l_@quot+2,f,c
  5506  002894  361F               	rlcf	__tdiv_to_l_@quot+3,f,c
  5507  002896  0621               	decf	__tdiv_to_l_@exp1,f,c
  5508  002898                     l775:
  5509  002898  5021               	movf	__tdiv_to_l_@exp1,w,c
  5510  00289A  A4D8               	btfss	status,2,c
  5511  00289C  D7F7               	goto	l776
  5512  00289E                     u4360:
  5513  00289E  C01C  F013         	movff	__tdiv_to_l_@quot,?__tdiv_to_l_
  5514  0028A2  C01D  F014         	movff	__tdiv_to_l_@quot+1,?__tdiv_to_l_+1
  5515  0028A6  C01E  F015         	movff	__tdiv_to_l_@quot+2,?__tdiv_to_l_+2
  5516  0028AA  C01F  F016         	movff	__tdiv_to_l_@quot+3,?__tdiv_to_l_+3
  5517  0028AE  0012               	return		;funcret
  5518  0028B0                     __end_of__tdiv_to_l_:
  5519                           	opt stack 0
  5520                           tblptru	equ	0xFF8
  5521                           tblptrh	equ	0xFF7
  5522                           tblptrl	equ	0xFF6
  5523                           tablat	equ	0xFF5
  5524                           prodh	equ	0xFF4
  5525                           prodl	equ	0xFF3
  5526                           intcon	equ	0xFF2
  5527                           intcon2	equ	0xFF1
  5528                           intcon3	equ	0xFF0
  5529                           postinc0	equ	0xFEE
  5530                           wreg	equ	0xFE8
  5531                           indf1	equ	0xFE7
  5532                           postdec1	equ	0xFE5
  5533                           fsr1h	equ	0xFE2
  5534                           fsr1l	equ	0xFE1
  5535                           indf2	equ	0xFDF
  5536                           postinc2	equ	0xFDE
  5537                           postdec2	equ	0xFDD
  5538                           fsr2h	equ	0xFDA
  5539                           fsr2l	equ	0xFD9
  5540                           status	equ	0xFD8
  5541                           
  5542 ;; *************** function __div_to_l_ *****************
  5543 ;; Defined at:
  5544 ;;		line 60 in file "C:\Program Files (x86)\Microchip\xc8\v1.45\sources\common\fldivl.c"
  5545 ;; Parameters:    Size  Location     Type
  5546 ;;  f1              3   18[COMRAM] unsigned long 
  5547 ;;  f2              3   21[COMRAM] unsigned long 
  5548 ;; Auto vars:     Size  Location     Type
  5549 ;;  quot            4   24[COMRAM] unsigned long 
  5550 ;;  exp1            1   29[COMRAM] unsigned char 
  5551 ;;  cntr            1   28[COMRAM] unsigned char 
  5552 ;; Return value:  Size  Location     Type
  5553 ;;                  4   18[COMRAM] unsigned long 
  5554 ;; Registers used:
  5555 ;;		wreg, status,2, status,0
  5556 ;; Tracked objects:
  5557 ;;		On entry : 0/0
  5558 ;;		On exit  : 0/0
  5559 ;;		Unchanged: 0/0
  5560 ;; Data sizes:     COMRAM   BANK0   BANK1   BANK2   BANK3   BANK4   BANK5   BANK6   BANK7   BANK8   BANK9  BANK10  BANK1
      +1  BANK12  BANK13  BANK14  BANK15
  5561 ;;      Params:         6       0       0       0       0       0       0       0       0       0       0       0       
      +0       0       0       0       0
  5562 ;;      Locals:         6       0       0       0       0       0       0       0       0       0       0       0       
      +0       0       0       0       0
  5563 ;;      Temps:          0       0       0       0       0       0       0       0       0       0       0       0       
      +0       0       0       0       0
  5564 ;;      Totals:        12       0       0       0       0       0       0       0       0       0       0       0       
      +0       0       0       0       0
  5565 ;;Total ram usage:       12 bytes
  5566 ;; Hardware stack levels used:    1
  5567 ;; Hardware stack levels required when called:    1
  5568 ;; This function calls:
  5569 ;;		Nothing
  5570 ;; This function is called by:
  5571 ;;		_sprintf
  5572 ;; This function uses a non-reentrant model
  5573 ;;
  5574                           
  5575                           	psect	text14
  5576  0028B0                     __ptext14:
  5577                           	opt stack 0
  5578  0028B0                     __div_to_l_:
  5579                           	opt stack 27
  5580                           
  5581                           ;incstack = 0
  5582  0028B0  3415               	rlcf	__div_to_l_@f1+2,w,c
  5583  0028B2  3416               	rlcf	__div_to_l_@f1+3,w,c
  5584  0028B4  6E1E               	movwf	__div_to_l_@exp1,c
  5585  0028B6  501E               	movf	__div_to_l_@exp1,w,c
  5586  0028B8  A4D8               	btfss	status,2,c
  5587  0028BA  D009               	goto	l659
  5588  0028BC  0E00               	movlw	0
  5589  0028BE  6E13               	movwf	?__div_to_l_,c
  5590  0028C0  0E00               	movlw	0
  5591  0028C2  6E14               	movwf	?__div_to_l_+1,c
  5592  0028C4  0E00               	movlw	0
  5593  0028C6  6E15               	movwf	?__div_to_l_+2,c
  5594  0028C8  0E00               	movlw	0
  5595  0028CA  6E16               	movwf	?__div_to_l_+3,c
  5596  0028CC  0012               	return	
  5597  0028CE                     l659:
  5598  0028CE  3418               	rlcf	__div_to_l_@f2+2,w,c
  5599  0028D0  3419               	rlcf	__div_to_l_@f2+3,w,c
  5600  0028D2  6E1D               	movwf	__div_to_l_@cntr,c
  5601  0028D4  501D               	movf	__div_to_l_@cntr,w,c
  5602  0028D6  A4D8               	btfss	status,2,c
  5603  0028D8  D009               	goto	l661
  5604  0028DA  0E00               	movlw	0
  5605  0028DC  6E13               	movwf	?__div_to_l_,c
  5606  0028DE  0E00               	movlw	0
  5607  0028E0  6E14               	movwf	?__div_to_l_+1,c
  5608  0028E2  0E00               	movlw	0
  5609  0028E4  6E15               	movwf	?__div_to_l_+2,c
  5610  0028E6  0E00               	movlw	0
  5611  0028E8  6E16               	movwf	?__div_to_l_+3,c
  5612  0028EA  0012               	return	
  5613  0028EC                     l661:
  5614  0028EC  8E15               	bsf	__div_to_l_@f1+2,7,c
  5615  0028EE  0EFF               	movlw	255
  5616  0028F0  1613               	andwf	__div_to_l_@f1,f,c
  5617  0028F2  0EFF               	movlw	255
  5618  0028F4  1614               	andwf	__div_to_l_@f1+1,f,c
  5619  0028F6  0EFF               	movlw	255
  5620  0028F8  1615               	andwf	__div_to_l_@f1+2,f,c
  5621  0028FA  0E00               	movlw	0
  5622  0028FC  1616               	andwf	__div_to_l_@f1+3,f,c
  5623  0028FE  8E18               	bsf	__div_to_l_@f2+2,7,c
  5624  002900  0EFF               	movlw	255
  5625  002902  1616               	andwf	__div_to_l_@f2,f,c
  5626  002904  0EFF               	movlw	255
  5627  002906  1617               	andwf	__div_to_l_@f2+1,f,c
  5628  002908  0EFF               	movlw	255
  5629  00290A  1618               	andwf	__div_to_l_@f2+2,f,c
  5630  00290C  0E00               	movlw	0
  5631  00290E  1619               	andwf	__div_to_l_@f2+3,f,c
  5632  002910  0E00               	movlw	0
  5633  002912  6E19               	movwf	__div_to_l_@quot,c
  5634  002914  0E00               	movlw	0
  5635  002916  6E1A               	movwf	__div_to_l_@quot+1,c
  5636  002918  0E00               	movlw	0
  5637  00291A  6E1B               	movwf	__div_to_l_@quot+2,c
  5638  00291C  0E00               	movlw	0
  5639  00291E  6E1C               	movwf	__div_to_l_@quot+3,c
  5640  002920  0E7F               	movlw	127
  5641  002922  5E1E               	subwf	__div_to_l_@exp1,f,c
  5642  002924  501D               	movf	__div_to_l_@cntr,w,c
  5643  002926  0FA0               	addlw	160
  5644  002928  5E1E               	subwf	__div_to_l_@exp1,f,c
  5645  00292A  0E20               	movlw	32
  5646  00292C  6E1D               	movwf	__div_to_l_@cntr,c
  5647  00292E  90D8               	bcf	status,0,c
  5648  002930  3619               	rlcf	__div_to_l_@quot,f,c
  5649  002932  361A               	rlcf	__div_to_l_@quot+1,f,c
  5650  002934  361B               	rlcf	__div_to_l_@quot+2,f,c
  5651  002936  361C               	rlcf	__div_to_l_@quot+3,f,c
  5652  002938  5016               	movf	__div_to_l_@f2,w,c
  5653  00293A  5C13               	subwf	__div_to_l_@f1,w,c
  5654  00293C  5017               	movf	__div_to_l_@f2+1,w,c
  5655  00293E  5814               	subwfb	__div_to_l_@f1+1,w,c
  5656  002940  5018               	movf	__div_to_l_@f2+2,w,c
  5657  002942  5815               	subwfb	__div_to_l_@f1+2,w,c
  5658  002944  5019               	movf	__div_to_l_@f2+3,w,c
  5659  002946  5816               	subwfb	__div_to_l_@f1+3,w,c
  5660  002948  A0D8               	btfss	status,0,c
  5661  00294A  D009               	goto	l663
  5662  00294C  5016               	movf	__div_to_l_@f2,w,c
  5663  00294E  5E13               	subwf	__div_to_l_@f1,f,c
  5664  002950  5017               	movf	__div_to_l_@f2+1,w,c
  5665  002952  5A14               	subwfb	__div_to_l_@f1+1,f,c
  5666  002954  5018               	movf	__div_to_l_@f2+2,w,c
  5667  002956  5A15               	subwfb	__div_to_l_@f1+2,f,c
  5668  002958  5019               	movf	__div_to_l_@f2+3,w,c
  5669  00295A  5A16               	subwfb	__div_to_l_@f1+3,f,c
  5670  00295C  8019               	bsf	__div_to_l_@quot,0,c
  5671  00295E                     l663:
  5672  00295E  90D8               	bcf	status,0,c
  5673  002960  3613               	rlcf	__div_to_l_@f1,f,c
  5674  002962  3614               	rlcf	__div_to_l_@f1+1,f,c
  5675  002964  3615               	rlcf	__div_to_l_@f1+2,f,c
  5676  002966  3616               	rlcf	__div_to_l_@f1+3,f,c
  5677  002968  2E1D               	decfsz	__div_to_l_@cntr,f,c
  5678  00296A  D7E1               	goto	l662
  5679  00296C  AE1E               	btfss	__div_to_l_@exp1,7,c
  5680  00296E  D016               	goto	l665
  5681  002970  501E               	movf	__div_to_l_@exp1,w,c
  5682  002972  0A80               	xorlw	128
  5683  002974  0F9F               	addlw	159
  5684  002976  B0D8               	btfsc	status,0,c
  5685  002978  D009               	goto	l666
  5686  00297A  0E00               	movlw	0
  5687  00297C  6E13               	movwf	?__div_to_l_,c
  5688  00297E  0E00               	movlw	0
  5689  002980  6E14               	movwf	?__div_to_l_+1,c
  5690  002982  0E00               	movlw	0
  5691  002984  6E15               	movwf	?__div_to_l_+2,c
  5692  002986  0E00               	movlw	0
  5693  002988  6E16               	movwf	?__div_to_l_+3,c
  5694  00298A  0012               	return	
  5695  00298C                     l666:
  5696  00298C  90D8               	bcf	status,0,c
  5697  00298E  321C               	rrcf	__div_to_l_@quot+3,f,c
  5698  002990  321B               	rrcf	__div_to_l_@quot+2,f,c
  5699  002992  321A               	rrcf	__div_to_l_@quot+1,f,c
  5700  002994  3219               	rrcf	__div_to_l_@quot,f,c
  5701  002996  3E1E               	incfsz	__div_to_l_@exp1,f,c
  5702  002998  D7F9               	goto	l666
  5703  00299A  D015               	goto	u4430
  5704  00299C                     l665:
  5705  00299C  0E1F               	movlw	31
  5706  00299E  641E               	cpfsgt	__div_to_l_@exp1,c
  5707  0029A0  D00F               	goto	l671
  5708  0029A2  0E00               	movlw	0
  5709  0029A4  6E13               	movwf	?__div_to_l_,c
  5710  0029A6  0E00               	movlw	0
  5711  0029A8  6E14               	movwf	?__div_to_l_+1,c
  5712  0029AA  0E00               	movlw	0
  5713  0029AC  6E15               	movwf	?__div_to_l_+2,c
  5714  0029AE  0E00               	movlw	0
  5715  0029B0  6E16               	movwf	?__div_to_l_+3,c
  5716  0029B2  0012               	return	
  5717  0029B4  90D8               	bcf	status,0,c
  5718  0029B6  3619               	rlcf	__div_to_l_@quot,f,c
  5719  0029B8  361A               	rlcf	__div_to_l_@quot+1,f,c
  5720  0029BA  361B               	rlcf	__div_to_l_@quot+2,f,c
  5721  0029BC  361C               	rlcf	__div_to_l_@quot+3,f,c
  5722  0029BE  061E               	decf	__div_to_l_@exp1,f,c
  5723  0029C0                     l671:
  5724  0029C0  501E               	movf	__div_to_l_@exp1,w,c
  5725  0029C2  A4D8               	btfss	status,2,c
  5726  0029C4  D7F7               	goto	l672
  5727  0029C6                     u4430:
  5728  0029C6  C019  F013         	movff	__div_to_l_@quot,?__div_to_l_
  5729  0029CA  C01A  F014         	movff	__div_to_l_@quot+1,?__div_to_l_+1
  5730  0029CE  C01B  F015         	movff	__div_to_l_@quot+2,?__div_to_l_+2
  5731  0029D2  C01C  F016         	movff	__div_to_l_@quot+3,?__div_to_l_+3
  5732  0029D6  0012               	return		;funcret
  5733  0029D8                     __end_of__div_to_l_:
  5734                           	opt stack 0
  5735                           tblptru	equ	0xFF8
  5736                           tblptrh	equ	0xFF7
  5737                           tblptrl	equ	0xFF6
  5738                           tablat	equ	0xFF5
  5739                           prodh	equ	0xFF4
  5740                           prodl	equ	0xFF3
  5741                           intcon	equ	0xFF2
  5742                           intcon2	equ	0xFF1
  5743                           intcon3	equ	0xFF0
  5744                           postinc0	equ	0xFEE
  5745                           wreg	equ	0xFE8
  5746                           indf1	equ	0xFE7
  5747                           postdec1	equ	0xFE5
  5748                           fsr1h	equ	0xFE2
  5749                           fsr1l	equ	0xFE1
  5750                           indf2	equ	0xFDF
  5751                           postinc2	equ	0xFDE
  5752                           postdec2	equ	0xFDD
  5753                           fsr2h	equ	0xFDA
  5754                           fsr2l	equ	0xFD9
  5755                           status	equ	0xFD8
  5756                           
  5757 ;; *************** function ___lltoft *****************
  5758 ;; Defined at:
  5759 ;;		line 35 in file "C:\Program Files (x86)\Microchip\xc8\v1.45\sources\common\lltoft.c"
  5760 ;; Parameters:    Size  Location     Type
  5761 ;;  c               4   26[COMRAM] unsigned long 
  5762 ;; Auto vars:     Size  Location     Type
  5763 ;;  exp             1   34[COMRAM] unsigned char 
  5764 ;; Return value:  Size  Location     Type
  5765 ;;                  3   26[COMRAM] float 
  5766 ;; Registers used:
  5767 ;;		wreg, status,2, status,0, cstack
  5768 ;; Tracked objects:
  5769 ;;		On entry : 0/0
  5770 ;;		On exit  : 0/0
  5771 ;;		Unchanged: 0/0
  5772 ;; Data sizes:     COMRAM   BANK0   BANK1   BANK2   BANK3   BANK4   BANK5   BANK6   BANK7   BANK8   BANK9  BANK10  BANK1
      +1  BANK12  BANK13  BANK14  BANK15
  5773 ;;      Params:         4       0       0       0       0       0       0       0       0       0       0       0       
      +0       0       0       0       0
  5774 ;;      Locals:         1       0       0       0       0       0       0       0       0       0       0       0       
      +0       0       0       0       0
  5775 ;;      Temps:          4       0       0       0       0       0       0       0       0       0       0       0       
      +0       0       0       0       0
  5776 ;;      Totals:         9       0       0       0       0       0       0       0       0       0       0       0       
      +0       0       0       0       0
  5777 ;;Total ram usage:        9 bytes
  5778 ;; Hardware stack levels used:    1
  5779 ;; Hardware stack levels required when called:    2
  5780 ;; This function calls:
  5781 ;;		___ftpack
  5782 ;; This function is called by:
  5783 ;;		_sprintf
  5784 ;; This function uses a non-reentrant model
  5785 ;;
  5786                           
  5787                           	psect	text15
  5788  0031B2                     __ptext15:
  5789                           	opt stack 0
  5790  0031B2                     ___lltoft:
  5791                           	opt stack 26
  5792                           
  5793                           ;incstack = 0
  5794  0031B2  0E8E               	movlw	142
  5795  0031B4  6E23               	movwf	___lltoft@exp,c
  5796  0031B6  D006               	goto	l870
  5797  0031B8  90D8               	bcf	status,0,c
  5798  0031BA  321E               	rrcf	___lltoft@c+3,f,c
  5799  0031BC  321D               	rrcf	___lltoft@c+2,f,c
  5800  0031BE  321C               	rrcf	___lltoft@c+1,f,c
  5801  0031C0  321B               	rrcf	___lltoft@c,f,c
  5802  0031C2  2A23               	incf	___lltoft@exp,f,c
  5803  0031C4                     l870:
  5804  0031C4  0E00               	movlw	0
  5805  0031C6  141B               	andwf	___lltoft@c,w,c
  5806  0031C8  6E1F               	movwf	??___lltoft& (0+255),c
  5807  0031CA  0E00               	movlw	0
  5808  0031CC  141C               	andwf	___lltoft@c+1,w,c
  5809  0031CE  6E20               	movwf	(??___lltoft+1)& (0+255),c
  5810  0031D0  0E00               	movlw	0
  5811  0031D2  141D               	andwf	___lltoft@c+2,w,c
  5812  0031D4  6E21               	movwf	(??___lltoft+2)& (0+255),c
  5813  0031D6  0EFF               	movlw	255
  5814  0031D8  141E               	andwf	___lltoft@c+3,w,c
  5815  0031DA  6E22               	movwf	(??___lltoft+3)& (0+255),c
  5816  0031DC  501F               	movf	??___lltoft,w,c
  5817  0031DE  1020               	iorwf	??___lltoft+1,w,c
  5818  0031E0  1021               	iorwf	??___lltoft+2,w,c
  5819  0031E2  1022               	iorwf	??___lltoft+3,w,c
  5820  0031E4  A4D8               	btfss	status,2,c
  5821  0031E6  D7E8               	goto	l871
  5822  0031E8  C01B  F013         	movff	___lltoft@c,___ftpack@arg
  5823  0031EC  C01C  F014         	movff	___lltoft@c+1,___ftpack@arg+1
  5824  0031F0  C01D  F015         	movff	___lltoft@c+2,___ftpack@arg+2
  5825  0031F4  C023  F016         	movff	___lltoft@exp,___ftpack@exp
  5826  0031F8  0E00               	movlw	0
  5827  0031FA  6E17               	movwf	___ftpack@sign,c
  5828  0031FC  EC1B  F017         	call	___ftpack	;wreg free
  5829  003200  C013  F01B         	movff	?___ftpack,?___lltoft
  5830  003204  C014  F01C         	movff	?___ftpack+1,?___lltoft+1
  5831  003208  C015  F01D         	movff	?___ftpack+2,?___lltoft+2
  5832  00320C  0012               	return	
  5833  00320E                     __end_of___lltoft:
  5834                           	opt stack 0
  5835                           tblptru	equ	0xFF8
  5836                           tblptrh	equ	0xFF7
  5837                           tblptrl	equ	0xFF6
  5838                           tablat	equ	0xFF5
  5839                           prodh	equ	0xFF4
  5840                           prodl	equ	0xFF3
  5841                           intcon	equ	0xFF2
  5842                           intcon2	equ	0xFF1
  5843                           intcon3	equ	0xFF0
  5844                           postinc0	equ	0xFEE
  5845                           wreg	equ	0xFE8
  5846                           indf1	equ	0xFE7
  5847                           postdec1	equ	0xFE5
  5848                           fsr1h	equ	0xFE2
  5849                           fsr1l	equ	0xFE1
  5850                           indf2	equ	0xFDF
  5851                           postinc2	equ	0xFDE
  5852                           postdec2	equ	0xFDD
  5853                           fsr2h	equ	0xFDA
  5854                           fsr2l	equ	0xFD9
  5855                           status	equ	0xFD8
  5856                           
  5857 ;; *************** function ___llmod *****************
  5858 ;; Defined at:
  5859 ;;		line 8 in file "C:\Program Files (x86)\Microchip\xc8\v1.45\sources\common\llmod.c"
  5860 ;; Parameters:    Size  Location     Type
  5861 ;;  dividend        4   31[COMRAM] unsigned long 
  5862 ;;  divisor         4   35[COMRAM] unsigned long 
  5863 ;; Auto vars:     Size  Location     Type
  5864 ;;  counter         1   39[COMRAM] unsigned char 
  5865 ;; Return value:  Size  Location     Type
  5866 ;;                  4   31[COMRAM] unsigned long 
  5867 ;; Registers used:
  5868 ;;		wreg, status,2, status,0
  5869 ;; Tracked objects:
  5870 ;;		On entry : 0/0
  5871 ;;		On exit  : 0/0
  5872 ;;		Unchanged: 0/0
  5873 ;; Data sizes:     COMRAM   BANK0   BANK1   BANK2   BANK3   BANK4   BANK5   BANK6   BANK7   BANK8   BANK9  BANK10  BANK1
      +1  BANK12  BANK13  BANK14  BANK15
  5874 ;;      Params:         8       0       0       0       0       0       0       0       0       0       0       0       
      +0       0       0       0       0
  5875 ;;      Locals:         1       0       0       0       0       0       0       0       0       0       0       0       
      +0       0       0       0       0
  5876 ;;      Temps:          0       0       0       0       0       0       0       0       0       0       0       0       
      +0       0       0       0       0
  5877 ;;      Totals:         9       0       0       0       0       0       0       0       0       0       0       0       
      +0       0       0       0       0
  5878 ;;Total ram usage:        9 bytes
  5879 ;; Hardware stack levels used:    1
  5880 ;; Hardware stack levels required when called:    1
  5881 ;; This function calls:
  5882 ;;		Nothing
  5883 ;; This function is called by:
  5884 ;;		_sprintf
  5885 ;; This function uses a non-reentrant model
  5886 ;;
  5887                           
  5888                           	psect	text16
  5889  0030EA                     __ptext16:
  5890                           	opt stack 0
  5891  0030EA                     ___llmod:
  5892                           	opt stack 27
  5893                           
  5894                           ;incstack = 0
  5895  0030EA  5024               	movf	___llmod@divisor,w,c
  5896  0030EC  1025               	iorwf	___llmod@divisor+1,w,c
  5897  0030EE  1026               	iorwf	___llmod@divisor+2,w,c
  5898  0030F0  1027               	iorwf	___llmod@divisor+3,w,c
  5899  0030F2  B4D8               	btfsc	status,2,c
  5900  0030F4  D024               	goto	l864
  5901  0030F6  0E01               	movlw	1
  5902  0030F8  6E28               	movwf	___llmod@counter,c
  5903  0030FA  D006               	goto	l859
  5904  0030FC  90D8               	bcf	status,0,c
  5905  0030FE  3624               	rlcf	___llmod@divisor,f,c
  5906  003100  3625               	rlcf	___llmod@divisor+1,f,c
  5907  003102  3626               	rlcf	___llmod@divisor+2,f,c
  5908  003104  3627               	rlcf	___llmod@divisor+3,f,c
  5909  003106  2A28               	incf	___llmod@counter,f,c
  5910  003108                     l859:
  5911  003108  AE27               	btfss	___llmod@divisor+3,7,c
  5912  00310A  D7F8               	goto	l860
  5913  00310C                     u4610:
  5914  00310C  5024               	movf	___llmod@divisor,w,c
  5915  00310E  5C20               	subwf	___llmod@dividend,w,c
  5916  003110  5025               	movf	___llmod@divisor+1,w,c
  5917  003112  5821               	subwfb	___llmod@dividend+1,w,c
  5918  003114  5026               	movf	___llmod@divisor+2,w,c
  5919  003116  5822               	subwfb	___llmod@dividend+2,w,c
  5920  003118  5027               	movf	___llmod@divisor+3,w,c
  5921  00311A  5823               	subwfb	___llmod@dividend+3,w,c
  5922  00311C  A0D8               	btfss	status,0,c
  5923  00311E  D008               	goto	l863
  5924  003120  5024               	movf	___llmod@divisor,w,c
  5925  003122  5E20               	subwf	___llmod@dividend,f,c
  5926  003124  5025               	movf	___llmod@divisor+1,w,c
  5927  003126  5A21               	subwfb	___llmod@dividend+1,f,c
  5928  003128  5026               	movf	___llmod@divisor+2,w,c
  5929  00312A  5A22               	subwfb	___llmod@dividend+2,f,c
  5930  00312C  5027               	movf	___llmod@divisor+3,w,c
  5931  00312E  5A23               	subwfb	___llmod@dividend+3,f,c
  5932  003130                     l863:
  5933  003130  90D8               	bcf	status,0,c
  5934  003132  3227               	rrcf	___llmod@divisor+3,f,c
  5935  003134  3226               	rrcf	___llmod@divisor+2,f,c
  5936  003136  3225               	rrcf	___llmod@divisor+1,f,c
  5937  003138  3224               	rrcf	___llmod@divisor,f,c
  5938  00313A  2E28               	decfsz	___llmod@counter,f,c
  5939  00313C  D7E7               	goto	u4610
  5940  00313E                     l864:
  5941  00313E  C020  F020         	movff	___llmod@dividend,?___llmod
  5942  003142  C021  F021         	movff	___llmod@dividend+1,?___llmod+1
  5943  003146  C022  F022         	movff	___llmod@dividend+2,?___llmod+2
  5944  00314A  C023  F023         	movff	___llmod@dividend+3,?___llmod+3
  5945  00314E  0012               	return		;funcret
  5946  003150                     __end_of___llmod:
  5947                           	opt stack 0
  5948                           tblptru	equ	0xFF8
  5949                           tblptrh	equ	0xFF7
  5950                           tblptrl	equ	0xFF6
  5951                           tablat	equ	0xFF5
  5952                           prodh	equ	0xFF4
  5953                           prodl	equ	0xFF3
  5954                           intcon	equ	0xFF2
  5955                           intcon2	equ	0xFF1
  5956                           intcon3	equ	0xFF0
  5957                           postinc0	equ	0xFEE
  5958                           wreg	equ	0xFE8
  5959                           indf1	equ	0xFE7
  5960                           postdec1	equ	0xFE5
  5961                           fsr1h	equ	0xFE2
  5962                           fsr1l	equ	0xFE1
  5963                           indf2	equ	0xFDF
  5964                           postinc2	equ	0xFDE
  5965                           postdec2	equ	0xFDD
  5966                           fsr2h	equ	0xFDA
  5967                           fsr2l	equ	0xFD9
  5968                           status	equ	0xFD8
  5969                           
  5970 ;; *************** function ___lldiv *****************
  5971 ;; Defined at:
  5972 ;;		line 8 in file "C:\Program Files (x86)\Microchip\xc8\v1.45\sources\common\lldiv.c"
  5973 ;; Parameters:    Size  Location     Type
  5974 ;;  dividend        4   18[COMRAM] unsigned long 
  5975 ;;  divisor         4   22[COMRAM] unsigned long 
  5976 ;; Auto vars:     Size  Location     Type
  5977 ;;  quotient        4   26[COMRAM] unsigned long 
  5978 ;;  counter         1   30[COMRAM] unsigned char 
  5979 ;; Return value:  Size  Location     Type
  5980 ;;                  4   18[COMRAM] unsigned long 
  5981 ;; Registers used:
  5982 ;;		wreg, status,2, status,0
  5983 ;; Tracked objects:
  5984 ;;		On entry : 0/0
  5985 ;;		On exit  : 0/0
  5986 ;;		Unchanged: 0/0
  5987 ;; Data sizes:     COMRAM   BANK0   BANK1   BANK2   BANK3   BANK4   BANK5   BANK6   BANK7   BANK8   BANK9  BANK10  BANK1
      +1  BANK12  BANK13  BANK14  BANK15
  5988 ;;      Params:         8       0       0       0       0       0       0       0       0       0       0       0       
      +0       0       0       0       0
  5989 ;;      Locals:         5       0       0       0       0       0       0       0       0       0       0       0       
      +0       0       0       0       0
  5990 ;;      Temps:          0       0       0       0       0       0       0       0       0       0       0       0       
      +0       0       0       0       0
  5991 ;;      Totals:        13       0       0       0       0       0       0       0       0       0       0       0       
      +0       0       0       0       0
  5992 ;;Total ram usage:       13 bytes
  5993 ;; Hardware stack levels used:    1
  5994 ;; Hardware stack levels required when called:    1
  5995 ;; This function calls:
  5996 ;;		Nothing
  5997 ;; This function is called by:
  5998 ;;		_sprintf
  5999 ;; This function uses a non-reentrant model
  6000 ;;
  6001                           
  6002                           	psect	text17
  6003  002FF8                     __ptext17:
  6004                           	opt stack 0
  6005  002FF8                     ___lldiv:
  6006                           	opt stack 27
  6007                           
  6008                           ;incstack = 0
  6009  002FF8  0E00               	movlw	0
  6010  002FFA  6E1B               	movwf	___lldiv@quotient,c
  6011  002FFC  0E00               	movlw	0
  6012  002FFE  6E1C               	movwf	___lldiv@quotient+1,c
  6013  003000  0E00               	movlw	0
  6014  003002  6E1D               	movwf	___lldiv@quotient+2,c
  6015  003004  0E00               	movlw	0
  6016  003006  6E1E               	movwf	___lldiv@quotient+3,c
  6017  003008  5017               	movf	___lldiv@divisor,w,c
  6018  00300A  1018               	iorwf	___lldiv@divisor+1,w,c
  6019  00300C  1019               	iorwf	___lldiv@divisor+2,w,c
  6020  00300E  101A               	iorwf	___lldiv@divisor+3,w,c
  6021  003010  B4D8               	btfsc	status,2,c
  6022  003012  D02A               	goto	l854
  6023  003014  0E01               	movlw	1
  6024  003016  6E1F               	movwf	___lldiv@counter,c
  6025  003018  D006               	goto	l849
  6026  00301A  90D8               	bcf	status,0,c
  6027  00301C  3617               	rlcf	___lldiv@divisor,f,c
  6028  00301E  3618               	rlcf	___lldiv@divisor+1,f,c
  6029  003020  3619               	rlcf	___lldiv@divisor+2,f,c
  6030  003022  361A               	rlcf	___lldiv@divisor+3,f,c
  6031  003024  2A1F               	incf	___lldiv@counter,f,c
  6032  003026                     l849:
  6033  003026  AE1A               	btfss	___lldiv@divisor+3,7,c
  6034  003028  D7F8               	goto	l850
  6035  00302A                     u4580:
  6036  00302A  90D8               	bcf	status,0,c
  6037  00302C  361B               	rlcf	___lldiv@quotient,f,c
  6038  00302E  361C               	rlcf	___lldiv@quotient+1,f,c
  6039  003030  361D               	rlcf	___lldiv@quotient+2,f,c
  6040  003032  361E               	rlcf	___lldiv@quotient+3,f,c
  6041  003034  5017               	movf	___lldiv@divisor,w,c
  6042  003036  5C13               	subwf	___lldiv@dividend,w,c
  6043  003038  5018               	movf	___lldiv@divisor+1,w,c
  6044  00303A  5814               	subwfb	___lldiv@dividend+1,w,c
  6045  00303C  5019               	movf	___lldiv@divisor+2,w,c
  6046  00303E  5815               	subwfb	___lldiv@dividend+2,w,c
  6047  003040  501A               	movf	___lldiv@divisor+3,w,c
  6048  003042  5816               	subwfb	___lldiv@dividend+3,w,c
  6049  003044  A0D8               	btfss	status,0,c
  6050  003046  D009               	goto	l853
  6051  003048  5017               	movf	___lldiv@divisor,w,c
  6052  00304A  5E13               	subwf	___lldiv@dividend,f,c
  6053  00304C  5018               	movf	___lldiv@divisor+1,w,c
  6054  00304E  5A14               	subwfb	___lldiv@dividend+1,f,c
  6055  003050  5019               	movf	___lldiv@divisor+2,w,c
  6056  003052  5A15               	subwfb	___lldiv@dividend+2,f,c
  6057  003054  501A               	movf	___lldiv@divisor+3,w,c
  6058  003056  5A16               	subwfb	___lldiv@dividend+3,f,c
  6059  003058  801B               	bsf	___lldiv@quotient,0,c
  6060  00305A                     l853:
  6061  00305A  90D8               	bcf	status,0,c
  6062  00305C  321A               	rrcf	___lldiv@divisor+3,f,c
  6063  00305E  3219               	rrcf	___lldiv@divisor+2,f,c
  6064  003060  3218               	rrcf	___lldiv@divisor+1,f,c
  6065  003062  3217               	rrcf	___lldiv@divisor,f,c
  6066  003064  2E1F               	decfsz	___lldiv@counter,f,c
  6067  003066  D7E1               	goto	u4580
  6068  003068                     l854:
  6069  003068  C01B  F013         	movff	___lldiv@quotient,?___lldiv
  6070  00306C  C01C  F014         	movff	___lldiv@quotient+1,?___lldiv+1
  6071  003070  C01D  F015         	movff	___lldiv@quotient+2,?___lldiv+2
  6072  003074  C01E  F016         	movff	___lldiv@quotient+3,?___lldiv+3
  6073  003078  0012               	return		;funcret
  6074  00307A                     __end_of___lldiv:
  6075                           	opt stack 0
  6076                           tblptru	equ	0xFF8
  6077                           tblptrh	equ	0xFF7
  6078                           tblptrl	equ	0xFF6
  6079                           tablat	equ	0xFF5
  6080                           prodh	equ	0xFF4
  6081                           prodl	equ	0xFF3
  6082                           intcon	equ	0xFF2
  6083                           intcon2	equ	0xFF1
  6084                           intcon3	equ	0xFF0
  6085                           postinc0	equ	0xFEE
  6086                           wreg	equ	0xFE8
  6087                           indf1	equ	0xFE7
  6088                           postdec1	equ	0xFE5
  6089                           fsr1h	equ	0xFE2
  6090                           fsr1l	equ	0xFE1
  6091                           indf2	equ	0xFDF
  6092                           postinc2	equ	0xFDE
  6093                           postdec2	equ	0xFDD
  6094                           fsr2h	equ	0xFDA
  6095                           fsr2l	equ	0xFD9
  6096                           status	equ	0xFD8
  6097                           
  6098 ;; *************** function ___fttol *****************
  6099 ;; Defined at:
  6100 ;;		line 44 in file "C:\Program Files (x86)\Microchip\xc8\v1.45\sources\common\fttol.c"
  6101 ;; Parameters:    Size  Location     Type
  6102 ;;  f1              3   60[COMRAM] float 
  6103 ;; Auto vars:     Size  Location     Type
  6104 ;;  lval            4   70[COMRAM] unsigned long 
  6105 ;;  exp1            1   74[COMRAM] unsigned char 
  6106 ;;  sign1           1   69[COMRAM] unsigned char 
  6107 ;; Return value:  Size  Location     Type
  6108 ;;                  4   60[COMRAM] long 
  6109 ;; Registers used:
  6110 ;;		wreg, status,2, status,0
  6111 ;; Tracked objects:
  6112 ;;		On entry : 0/0
  6113 ;;		On exit  : 0/0
  6114 ;;		Unchanged: 0/0
  6115 ;; Data sizes:     COMRAM   BANK0   BANK1   BANK2   BANK3   BANK4   BANK5   BANK6   BANK7   BANK8   BANK9  BANK10  BANK1
      +1  BANK12  BANK13  BANK14  BANK15
  6116 ;;      Params:         4       0       0       0       0       0       0       0       0       0       0       0       
      +0       0       0       0       0
  6117 ;;      Locals:         6       0       0       0       0       0       0       0       0       0       0       0       
      +0       0       0       0       0
  6118 ;;      Temps:          5       0       0       0       0       0       0       0       0       0       0       0       
      +0       0       0       0       0
  6119 ;;      Totals:        15       0       0       0       0       0       0       0       0       0       0       0       
      +0       0       0       0       0
  6120 ;;Total ram usage:       15 bytes
  6121 ;; Hardware stack levels used:    1
  6122 ;; Hardware stack levels required when called:    1
  6123 ;; This function calls:
  6124 ;;		Nothing
  6125 ;; This function is called by:
  6126 ;;		_sprintf
  6127 ;;		_set_pwm1_percent
  6128 ;;		_set_pwm1_voltage
  6129 ;;		_set_pwm1_general
  6130 ;; This function uses a non-reentrant model
  6131 ;;
  6132                           
  6133                           	psect	text18
  6134  002ACC                     __ptext18:
  6135                           	opt stack 0
  6136  002ACC                     ___fttol:
  6137                           	opt stack 27
  6138                           
  6139                           ;incstack = 0
  6140  002ACC  C03F  F041         	movff	___fttol@f1+2,??___fttol
  6141  002AD0  6A42               	clrf	(??___fttol+1)& (0+255),c
  6142  002AD2  6A43               	clrf	(??___fttol+2)& (0+255),c
  6143  002AD4  343E               	rlcf	___fttol@f1+1,w,c
  6144  002AD6  3641               	rlcf	??___fttol& (0+255),f,c
  6145  002AD8  E301               	bnc	u4491
  6146  002ADA  8042               	bsf	(??___fttol+1)& (0+255),0,c
  6147  002ADC                     u4491:
  6148  002ADC  5041               	movf	??___fttol,w,c
  6149  002ADE  6E4B               	movwf	___fttol@exp1,c
  6150  002AE0  504B               	movf	___fttol@exp1,w,c
  6151  002AE2  A4D8               	btfss	status,2,c
  6152  002AE4  D009               	goto	l808
  6153  002AE6  0E00               	movlw	0
  6154  002AE8  6E3D               	movwf	?___fttol,c
  6155  002AEA  0E00               	movlw	0
  6156  002AEC  6E3E               	movwf	?___fttol+1,c
  6157  002AEE  0E00               	movlw	0
  6158  002AF0  6E3F               	movwf	?___fttol+2,c
  6159  002AF2  0E00               	movlw	0
  6160  002AF4  6E40               	movwf	?___fttol+3,c
  6161  002AF6  0012               	return	
  6162  002AF8                     l808:
  6163  002AF8  0E17               	movlw	23
  6164  002AFA  6E41               	movwf	??___fttol& (0+255),c
  6165  002AFC  C03D  F042         	movff	___fttol@f1,??___fttol+1
  6166  002B00  C03E  F043         	movff	___fttol@f1+1,??___fttol+2
  6167  002B04  C03F  F044         	movff	___fttol@f1+2,??___fttol+3
  6168  002B08  2841               	incf	??___fttol,w,c
  6169  002B0A  6E45               	movwf	(??___fttol+4)& (0+255),c
  6170  002B0C  D004               	goto	u4510
  6171  002B0E                     u4515:
  6172  002B0E  90D8               	bcf	status,0,c
  6173  002B10  3244               	rrcf	??___fttol+3,f,c
  6174  002B12  3243               	rrcf	??___fttol+2,f,c
  6175  002B14  3242               	rrcf	??___fttol+1,f,c
  6176  002B16                     u4510:
  6177  002B16  2E45               	decfsz	(??___fttol+4)& (0+255),f,c
  6178  002B18  D7FA               	goto	u4515
  6179  002B1A  5042               	movf	??___fttol+1,w,c
  6180  002B1C  6E46               	movwf	___fttol@sign1,c
  6181  002B1E  8E3E               	bsf	___fttol@f1+1,7,c
  6182  002B20  0EFF               	movlw	255
  6183  002B22  163D               	andwf	___fttol@f1,f,c
  6184  002B24  0EFF               	movlw	255
  6185  002B26  163E               	andwf	___fttol@f1+1,f,c
  6186  002B28  0E00               	movlw	0
  6187  002B2A  163F               	andwf	___fttol@f1+2,f,c
  6188  002B2C  503D               	movf	___fttol@f1,w,c
  6189  002B2E  6E47               	movwf	___fttol@lval,c
  6190  002B30  503E               	movf	___fttol@f1+1,w,c
  6191  002B32  6E48               	movwf	___fttol@lval+1,c
  6192  002B34  503F               	movf	___fttol@f1+2,w,c
  6193  002B36  6E49               	movwf	___fttol@lval+2,c
  6194  002B38  6A4A               	clrf	___fttol@lval+3,c
  6195  002B3A  0E8E               	movlw	142
  6196  002B3C  5E4B               	subwf	___fttol@exp1,f,c
  6197  002B3E  AE4B               	btfss	___fttol@exp1,7,c
  6198  002B40  D016               	goto	l810
  6199  002B42  504B               	movf	___fttol@exp1,w,c
  6200  002B44  0A80               	xorlw	128
  6201  002B46  0F8F               	addlw	143
  6202  002B48  B0D8               	btfsc	status,0,c
  6203  002B4A  D009               	goto	l811
  6204  002B4C  0E00               	movlw	0
  6205  002B4E  6E3D               	movwf	?___fttol,c
  6206  002B50  0E00               	movlw	0
  6207  002B52  6E3E               	movwf	?___fttol+1,c
  6208  002B54  0E00               	movlw	0
  6209  002B56  6E3F               	movwf	?___fttol+2,c
  6210  002B58  0E00               	movlw	0
  6211  002B5A  6E40               	movwf	?___fttol+3,c
  6212  002B5C  0012               	return	
  6213  002B5E                     l811:
  6214  002B5E  90D8               	bcf	status,0,c
  6215  002B60  324A               	rrcf	___fttol@lval+3,f,c
  6216  002B62  3249               	rrcf	___fttol@lval+2,f,c
  6217  002B64  3248               	rrcf	___fttol@lval+1,f,c
  6218  002B66  3247               	rrcf	___fttol@lval,f,c
  6219  002B68  3E4B               	incfsz	___fttol@exp1,f,c
  6220  002B6A  D7F9               	goto	l811
  6221  002B6C  D015               	goto	u4550
  6222  002B6E                     l810:
  6223  002B6E  0E17               	movlw	23
  6224  002B70  644B               	cpfsgt	___fttol@exp1,c
  6225  002B72  D00F               	goto	l816
  6226  002B74  0E00               	movlw	0
  6227  002B76  6E3D               	movwf	?___fttol,c
  6228  002B78  0E00               	movlw	0
  6229  002B7A  6E3E               	movwf	?___fttol+1,c
  6230  002B7C  0E00               	movlw	0
  6231  002B7E  6E3F               	movwf	?___fttol+2,c
  6232  002B80  0E00               	movlw	0
  6233  002B82  6E40               	movwf	?___fttol+3,c
  6234  002B84  0012               	return	
  6235  002B86  90D8               	bcf	status,0,c
  6236  002B88  3647               	rlcf	___fttol@lval,f,c
  6237  002B8A  3648               	rlcf	___fttol@lval+1,f,c
  6238  002B8C  3649               	rlcf	___fttol@lval+2,f,c
  6239  002B8E  364A               	rlcf	___fttol@lval+3,f,c
  6240  002B90  064B               	decf	___fttol@exp1,f,c
  6241  002B92                     l816:
  6242  002B92  504B               	movf	___fttol@exp1,w,c
  6243  002B94  A4D8               	btfss	status,2,c
  6244  002B96  D7F7               	goto	l817
  6245  002B98                     u4550:
  6246  002B98  5046               	movf	___fttol@sign1,w,c
  6247  002B9A  B4D8               	btfsc	status,2,c
  6248  002B9C  D008               	goto	l819
  6249  002B9E  1E4A               	comf	___fttol@lval+3,f,c
  6250  002BA0  1E49               	comf	___fttol@lval+2,f,c
  6251  002BA2  1E48               	comf	___fttol@lval+1,f,c
  6252  002BA4  6C47               	negf	___fttol@lval,c
  6253  002BA6  0E00               	movlw	0
  6254  002BA8  2248               	addwfc	___fttol@lval+1,f,c
  6255  002BAA  2249               	addwfc	___fttol@lval+2,f,c
  6256  002BAC  224A               	addwfc	___fttol@lval+3,f,c
  6257  002BAE                     l819:
  6258  002BAE  C047  F03D         	movff	___fttol@lval,?___fttol
  6259  002BB2  C048  F03E         	movff	___fttol@lval+1,?___fttol+1
  6260  002BB6  C049  F03F         	movff	___fttol@lval+2,?___fttol+2
  6261  002BBA  C04A  F040         	movff	___fttol@lval+3,?___fttol+3
  6262  002BBE  0012               	return	
  6263  002BC0                     __end_of___fttol:
  6264                           	opt stack 0
  6265                           tblptru	equ	0xFF8
  6266                           tblptrh	equ	0xFF7
  6267                           tblptrl	equ	0xFF6
  6268                           tablat	equ	0xFF5
  6269                           prodh	equ	0xFF4
  6270                           prodl	equ	0xFF3
  6271                           intcon	equ	0xFF2
  6272                           intcon2	equ	0xFF1
  6273                           intcon3	equ	0xFF0
  6274                           postinc0	equ	0xFEE
  6275                           wreg	equ	0xFE8
  6276                           indf1	equ	0xFE7
  6277                           postdec1	equ	0xFE5
  6278                           fsr1h	equ	0xFE2
  6279                           fsr1l	equ	0xFE1
  6280                           indf2	equ	0xFDF
  6281                           postinc2	equ	0xFDE
  6282                           postdec2	equ	0xFDD
  6283                           fsr2h	equ	0xFDA
  6284                           fsr2l	equ	0xFD9
  6285                           status	equ	0xFD8
  6286                           
  6287 ;; *************** function ___ftsub *****************
  6288 ;; Defined at:
  6289 ;;		line 20 in file "C:\Program Files (x86)\Microchip\xc8\v1.45\sources\common\ftsub.c"
  6290 ;; Parameters:    Size  Location     Type
  6291 ;;  f1              3   75[COMRAM] float 
  6292 ;;  f2              3   78[COMRAM] float 
  6293 ;; Auto vars:     Size  Location     Type
  6294 ;;		None
  6295 ;; Return value:  Size  Location     Type
  6296 ;;                  3   75[COMRAM] float 
  6297 ;; Registers used:
  6298 ;;		wreg, status,2, status,0, cstack
  6299 ;; Tracked objects:
  6300 ;;		On entry : 0/0
  6301 ;;		On exit  : 0/0
  6302 ;;		Unchanged: 0/0
  6303 ;; Data sizes:     COMRAM   BANK0   BANK1   BANK2   BANK3   BANK4   BANK5   BANK6   BANK7   BANK8   BANK9  BANK10  BANK1
      +1  BANK12  BANK13  BANK14  BANK15
  6304 ;;      Params:         6       0       0       0       0       0       0       0       0       0       0       0       
      +0       0       0       0       0
  6305 ;;      Locals:         0       0       0       0       0       0       0       0       0       0       0       0       
      +0       0       0       0       0
  6306 ;;      Temps:          0       0       0       0       0       0       0       0       0       0       0       0       
      +0       0       0       0       0
  6307 ;;      Totals:         6       0       0       0       0       0       0       0       0       0       0       0       
      +0       0       0       0       0
  6308 ;;Total ram usage:        6 bytes
  6309 ;; Hardware stack levels used:    1
  6310 ;; Hardware stack levels required when called:    3
  6311 ;; This function calls:
  6312 ;;		___ftadd
  6313 ;; This function is called by:
  6314 ;;		_sprintf
  6315 ;; This function uses a non-reentrant model
  6316 ;;
  6317                           
  6318                           	psect	text19
  6319  00338A                     __ptext19:
  6320                           	opt stack 0
  6321  00338A                     ___ftsub:
  6322                           	opt stack 25
  6323                           
  6324                           ;incstack = 0
  6325  00338A  504F               	movf	___ftsub@f2,w,c
  6326  00338C  1050               	iorwf	___ftsub@f2+1,w,c
  6327  00338E  1051               	iorwf	___ftsub@f2+2,w,c
  6328  003390  B4D8               	btfsc	status,2,c
  6329  003392  D006               	goto	l804
  6330  003394  0E00               	movlw	0
  6331  003396  1A4F               	xorwf	___ftsub@f2,f,c
  6332  003398  0E00               	movlw	0
  6333  00339A  1A50               	xorwf	___ftsub@f2+1,f,c
  6334  00339C  0E80               	movlw	128
  6335  00339E  1A51               	xorwf	___ftsub@f2+2,f,c
  6336  0033A0                     l804:
  6337  0033A0  C04C  F040         	movff	___ftsub@f1,___ftadd@f1
  6338  0033A4  C04D  F041         	movff	___ftsub@f1+1,___ftadd@f1+1
  6339  0033A8  C04E  F042         	movff	___ftsub@f1+2,___ftadd@f1+2
  6340  0033AC  C04F  F043         	movff	___ftsub@f2,___ftadd@f2
  6341  0033B0  C050  F044         	movff	___ftsub@f2+1,___ftadd@f2+1
  6342  0033B4  C051  F045         	movff	___ftsub@f2+2,___ftadd@f2+2
  6343  0033B8  EC40  F012         	call	___ftadd	;wreg free
  6344  0033BC  C040  F04C         	movff	?___ftadd,?___ftsub
  6345  0033C0  C041  F04D         	movff	?___ftadd+1,?___ftsub+1
  6346  0033C4  C042  F04E         	movff	?___ftadd+2,?___ftsub+2
  6347  0033C8  0012               	return	
  6348  0033CA                     __end_of___ftsub:
  6349                           	opt stack 0
  6350                           tblptru	equ	0xFF8
  6351                           tblptrh	equ	0xFF7
  6352                           tblptrl	equ	0xFF6
  6353                           tablat	equ	0xFF5
  6354                           prodh	equ	0xFF4
  6355                           prodl	equ	0xFF3
  6356                           intcon	equ	0xFF2
  6357                           intcon2	equ	0xFF1
  6358                           intcon3	equ	0xFF0
  6359                           postinc0	equ	0xFEE
  6360                           wreg	equ	0xFE8
  6361                           indf1	equ	0xFE7
  6362                           postdec1	equ	0xFE5
  6363                           fsr1h	equ	0xFE2
  6364                           fsr1l	equ	0xFE1
  6365                           indf2	equ	0xFDF
  6366                           postinc2	equ	0xFDE
  6367                           postdec2	equ	0xFDD
  6368                           fsr2h	equ	0xFDA
  6369                           fsr2l	equ	0xFD9
  6370                           status	equ	0xFD8
  6371                           
  6372 ;; *************** function _lcd_puts *****************
  6373 ;; Defined at:
  6374 ;;		line 100 in file "lcd_x8.c"
  6375 ;; Parameters:    Size  Location     Type
  6376 ;;  s               2   32[COMRAM] PTR unsigned char 
  6377 ;;		 -> STR_7(15), STR_6(15), STR_5(15), STR_4(15), 
  6378 ;;		 -> Buffer(32), 
  6379 ;; Auto vars:     Size  Location     Type
  6380 ;;		None
  6381 ;; Return value:  Size  Location     Type
  6382 ;;                  1    wreg      void 
  6383 ;; Registers used:
  6384 ;;		wreg, fsr0l, fsr0h, status,2, status,0, tblptrl, tblptrh, tblptru, cstack
  6385 ;; Tracked objects:
  6386 ;;		On entry : 0/0
  6387 ;;		On exit  : 0/0
  6388 ;;		Unchanged: 0/0
  6389 ;; Data sizes:     COMRAM   BANK0   BANK1   BANK2   BANK3   BANK4   BANK5   BANK6   BANK7   BANK8   BANK9  BANK10  BANK1
      +1  BANK12  BANK13  BANK14  BANK15
  6390 ;;      Params:         2       0       0       0       0       0       0       0       0       0       0       0       
      +0       0       0       0       0
  6391 ;;      Locals:         0       0       0       0       0       0       0       0       0       0       0       0       
      +0       0       0       0       0
  6392 ;;      Temps:          0       0       0       0       0       0       0       0       0       0       0       0       
      +0       0       0       0       0
  6393 ;;      Totals:         2       0       0       0       0       0       0       0       0       0       0       0       
      +0       0       0       0       0
  6394 ;;Total ram usage:        2 bytes
  6395 ;; Hardware stack levels used:    1
  6396 ;; Hardware stack levels required when called:    6
  6397 ;; This function calls:
  6398 ;;		_lcd_putc
  6399 ;; This function is called by:
  6400 ;;		_printingOnLCD
  6401 ;; This function uses a non-reentrant model
  6402 ;;
  6403                           
  6404                           	psect	text20
  6405  00320E                     __ptext20:
  6406                           	opt stack 0
  6407  00320E                     _lcd_puts:
  6408                           	opt stack 23
  6409                           
  6410                           ;lcd_x8.c: 101: while (*s) {
  6411                           
  6412                           ;incstack = 0
  6413  00320E  D015               	goto	l266
  6414  003210                     
  6415                           ;lcd_x8.c: 102: lcd_putc(*s);
  6416  003210  C021  FFF6         	movff	lcd_puts@s,tblptrl
  6417  003214  C022  FFF7         	movff	lcd_puts@s+1,tblptrh
  6418  003218  0E00               	movlw	low (__smallconst shr (0+16))
  6419  00321A  6EF8               	movwf	tblptru,c
  6420  00321C  0E0F               	movlw	(high __ramtop+-1)
  6421  00321E  64F7               	cpfsgt	tblptrh,c
  6422  003220  D003               	bra	u5197
  6423  003222  0008               	tblrd		*
  6424  003224  50F5               	movf	tablat,w,c
  6425  003226  D005               	bra	u5190
  6426  003228                     u5197:
  6427  003228  CFF6 FFE9          	movff	tblptrl,fsr0l
  6428  00322C  CFF7 FFEA          	movff	tblptrh,fsr0h
  6429  003230  50EF               	movf	indf0,w,c
  6430  003232                     u5190:
  6431  003232  EC32  F019         	call	_lcd_putc
  6432                           
  6433                           ;lcd_x8.c: 103: s++;
  6434  003236  4A21               	infsnz	lcd_puts@s,f,c
  6435  003238  2A22               	incf	lcd_puts@s+1,f,c
  6436  00323A                     l266:
  6437  00323A  C021  FFF6         	movff	lcd_puts@s,tblptrl
  6438  00323E  C022  FFF7         	movff	lcd_puts@s+1,tblptrh
  6439  003242  0E00               	movlw	low (__smallconst shr (0+16))
  6440  003244  6EF8               	movwf	tblptru,c
  6441  003246  0E0F               	movlw	(high __ramtop+-1)
  6442  003248  64F7               	cpfsgt	tblptrh,c
  6443  00324A  D003               	bra	u5207
  6444  00324C  0008               	tblrd		*
  6445  00324E  50F5               	movf	tablat,w,c
  6446  003250  D005               	bra	u5200
  6447  003252                     u5207:
  6448  003252  CFF6 FFE9          	movff	tblptrl,fsr0l
  6449  003256  CFF7 FFEA          	movff	tblptrh,fsr0h
  6450  00325A  50EF               	movf	indf0,w,c
  6451  00325C                     u5200:
  6452  00325C  0900               	iorlw	0
  6453  00325E  B4D8               	btfsc	status,2,c
  6454  003260  0012               	return	
  6455  003262  D7D6               	goto	l267
  6456  003264                     __end_of_lcd_puts:
  6457                           	opt stack 0
  6458                           tblptru	equ	0xFF8
  6459                           tblptrh	equ	0xFF7
  6460                           tblptrl	equ	0xFF6
  6461                           tablat	equ	0xFF5
  6462                           prodh	equ	0xFF4
  6463                           prodl	equ	0xFF3
  6464                           intcon	equ	0xFF2
  6465                           intcon2	equ	0xFF1
  6466                           intcon3	equ	0xFF0
  6467                           indf0	equ	0xFEF
  6468                           postinc0	equ	0xFEE
  6469                           fsr0h	equ	0xFEA
  6470                           fsr0l	equ	0xFE9
  6471                           wreg	equ	0xFE8
  6472                           indf1	equ	0xFE7
  6473                           postdec1	equ	0xFE5
  6474                           fsr1h	equ	0xFE2
  6475                           fsr1l	equ	0xFE1
  6476                           indf2	equ	0xFDF
  6477                           postinc2	equ	0xFDE
  6478                           postdec2	equ	0xFDD
  6479                           fsr2h	equ	0xFDA
  6480                           fsr2l	equ	0xFD9
  6481                           status	equ	0xFD8
  6482                           
  6483 ;; *************** function _lcd_putc *****************
  6484 ;; Defined at:
  6485 ;;		line 86 in file "lcd_x8.c"
  6486 ;; Parameters:    Size  Location     Type
  6487 ;;  c               1    wreg     unsigned char 
  6488 ;; Auto vars:     Size  Location     Type
  6489 ;;  c               1   31[COMRAM] unsigned char 
  6490 ;; Return value:  Size  Location     Type
  6491 ;;                  1    wreg      void 
  6492 ;; Registers used:
  6493 ;;		wreg, status,2, status,0, cstack
  6494 ;; Tracked objects:
  6495 ;;		On entry : 0/0
  6496 ;;		On exit  : 0/0
  6497 ;;		Unchanged: 0/0
  6498 ;; Data sizes:     COMRAM   BANK0   BANK1   BANK2   BANK3   BANK4   BANK5   BANK6   BANK7   BANK8   BANK9  BANK10  BANK1
      +1  BANK12  BANK13  BANK14  BANK15
  6499 ;;      Params:         0       0       0       0       0       0       0       0       0       0       0       0       
      +0       0       0       0       0
  6500 ;;      Locals:         1       0       0       0       0       0       0       0       0       0       0       0       
      +0       0       0       0       0
  6501 ;;      Temps:          0       0       0       0       0       0       0       0       0       0       0       0       
      +0       0       0       0       0
  6502 ;;      Totals:         1       0       0       0       0       0       0       0       0       0       0       0       
      +0       0       0       0       0
  6503 ;;Total ram usage:        1 bytes
  6504 ;; Hardware stack levels used:    1
  6505 ;; Hardware stack levels required when called:    5
  6506 ;; This function calls:
  6507 ;;		_delay_ms
  6508 ;;		_lcd_gotoxy
  6509 ;;		_lcd_send_byte
  6510 ;; This function is called by:
  6511 ;;		_lcd_puts
  6512 ;; This function uses a non-reentrant model
  6513 ;;
  6514                           
  6515                           	psect	text21
  6516  003264                     __ptext21:
  6517                           	opt stack 0
  6518  003264                     _lcd_putc:
  6519                           	opt stack 23
  6520                           
  6521                           ;incstack = 0
  6522                           ;lcd_putc@c stored from wreg
  6523  003264  6E20               	movwf	lcd_putc@c,c
  6524                           
  6525                           ;lcd_x8.c: 87: switch (c) {
  6526  003266  D01E               	goto	l257
  6527  003268  0E01               	movlw	1
  6528  00326A  6E1B               	movwf	lcd_send_byte@n,c
  6529  00326C  0E00               	movlw	0
  6530  00326E  EC5D  F019         	call	_lcd_send_byte
  6531                           
  6532                           ;lcd_x8.c: 89: delay_ms(2);
  6533  003272  0E00               	movlw	0
  6534  003274  6E14               	movwf	delay_ms@n+1,c
  6535  003276  0E02               	movlw	2
  6536  003278  6E13               	movwf	delay_ms@n,c
  6537  00327A  EC76  F01A         	call	_delay_ms	;wreg free
  6538                           
  6539                           ;lcd_x8.c: 90: break;
  6540  00327E  0012               	return	
  6541  003280  0E02               	movlw	2
  6542  003282  6E1D               	movwf	lcd_gotoxy@y,c
  6543  003284  0E01               	movlw	1
  6544  003286  ECA4  F019         	call	_lcd_gotoxy
  6545                           
  6546                           ;lcd_x8.c: 92: break;
  6547  00328A  0012               	return	
  6548  00328C  0E10               	movlw	16
  6549  00328E  6E1B               	movwf	lcd_send_byte@n,c
  6550  003290  0E00               	movlw	0
  6551  003292  EC5D  F019         	call	_lcd_send_byte
  6552                           
  6553                           ;lcd_x8.c: 94: break;
  6554  003296  0012               	return	
  6555  003298  C020  F01B         	movff	lcd_putc@c,lcd_send_byte@n
  6556  00329C  0E01               	movlw	1
  6557  00329E  EC5D  F019         	call	_lcd_send_byte
  6558                           
  6559                           ;lcd_x8.c: 97: }
  6560                           
  6561                           ;lcd_x8.c: 96: break;
  6562  0032A2  0012               	return	
  6563  0032A4                     l257:
  6564  0032A4  5020               	movf	lcd_putc@c,w,c
  6565                           
  6566                           ; Switch size 1, requested type "space"
  6567                           ; Number of cases is 3, Range of values is 8 to 12
  6568                           ; switch strategies available:
  6569                           ; Name         Instructions Cycles
  6570                           ; simple_byte           10     6 (average)
  6571                           ;	Chosen strategy is simple_byte
  6572  0032A6  0A08               	xorlw	8	; case 8
  6573  0032A8  B4D8               	btfsc	status,2,c
  6574  0032AA  D7F0               	goto	l261
  6575  0032AC  0A02               	xorlw	2	; case 10
  6576  0032AE  B4D8               	btfsc	status,2,c
  6577  0032B0  D7E7               	goto	l260
  6578  0032B2  0A06               	xorlw	6	; case 12
  6579  0032B4  B4D8               	btfsc	status,2,c
  6580  0032B6  D7D8               	goto	l258
  6581  0032B8  D7EF               	goto	l262
  6582  0032BA                     __end_of_lcd_putc:
  6583                           	opt stack 0
  6584                           tblptru	equ	0xFF8
  6585                           tblptrh	equ	0xFF7
  6586                           tblptrl	equ	0xFF6
  6587                           tablat	equ	0xFF5
  6588                           prodh	equ	0xFF4
  6589                           prodl	equ	0xFF3
  6590                           intcon	equ	0xFF2
  6591                           intcon2	equ	0xFF1
  6592                           intcon3	equ	0xFF0
  6593                           indf0	equ	0xFEF
  6594                           postinc0	equ	0xFEE
  6595                           fsr0h	equ	0xFEA
  6596                           fsr0l	equ	0xFE9
  6597                           wreg	equ	0xFE8
  6598                           indf1	equ	0xFE7
  6599                           postdec1	equ	0xFE5
  6600                           fsr1h	equ	0xFE2
  6601                           fsr1l	equ	0xFE1
  6602                           indf2	equ	0xFDF
  6603                           postinc2	equ	0xFDE
  6604                           postdec2	equ	0xFDD
  6605                           fsr2h	equ	0xFDA
  6606                           fsr2l	equ	0xFD9
  6607                           status	equ	0xFD8
  6608                           
  6609 ;; *************** function _lcd_gotoxy *****************
  6610 ;; Defined at:
  6611 ;;		line 69 in file "lcd_x8.c"
  6612 ;; Parameters:    Size  Location     Type
  6613 ;;  x               1    wreg     unsigned char 
  6614 ;;  y               1   28[COMRAM] unsigned char 
  6615 ;; Auto vars:     Size  Location     Type
  6616 ;;  x               1   29[COMRAM] unsigned char 
  6617 ;;  address         1   30[COMRAM] unsigned char 
  6618 ;; Return value:  Size  Location     Type
  6619 ;;                  1    wreg      void 
  6620 ;; Registers used:
  6621 ;;		wreg, status,2, status,0, cstack
  6622 ;; Tracked objects:
  6623 ;;		On entry : 0/0
  6624 ;;		On exit  : 0/0
  6625 ;;		Unchanged: 0/0
  6626 ;; Data sizes:     COMRAM   BANK0   BANK1   BANK2   BANK3   BANK4   BANK5   BANK6   BANK7   BANK8   BANK9  BANK10  BANK1
      +1  BANK12  BANK13  BANK14  BANK15
  6627 ;;      Params:         1       0       0       0       0       0       0       0       0       0       0       0       
      +0       0       0       0       0
  6628 ;;      Locals:         2       0       0       0       0       0       0       0       0       0       0       0       
      +0       0       0       0       0
  6629 ;;      Temps:          0       0       0       0       0       0       0       0       0       0       0       0       
      +0       0       0       0       0
  6630 ;;      Totals:         3       0       0       0       0       0       0       0       0       0       0       0       
      +0       0       0       0       0
  6631 ;;Total ram usage:        3 bytes
  6632 ;; Hardware stack levels used:    1
  6633 ;; Hardware stack levels required when called:    4
  6634 ;; This function calls:
  6635 ;;		_lcd_send_byte
  6636 ;; This function is called by:
  6637 ;;		_printingOnLCD
  6638 ;;		_lcd_putc
  6639 ;; This function uses a non-reentrant model
  6640 ;;
  6641                           
  6642                           	psect	text22
  6643  003348                     __ptext22:
  6644                           	opt stack 0
  6645  003348                     _lcd_gotoxy:
  6646                           	opt stack 23
  6647                           
  6648                           ;incstack = 0
  6649                           ;lcd_gotoxy@x stored from wreg
  6650  003348  6E1E               	movwf	lcd_gotoxy@x,c
  6651                           
  6652                           ;lcd_x8.c: 70: unsigned char address;
  6653                           ;lcd_x8.c: 72: switch (y) {
  6654  00334A  D009               	goto	l248
  6655  00334C  0E80               	movlw	128
  6656  00334E  D005               	goto	L7
  6657  003350  0EC0               	movlw	192
  6658  003352  D003               	goto	L7
  6659  003354  0E90               	movlw	144
  6660  003356  D001               	goto	L7
  6661  003358  0ED0               	movlw	208
  6662  00335A                     L7:
  6663  00335A  6E1F               	movwf	lcd_gotoxy@address,c
  6664                           
  6665                           ;lcd_x8.c: 81: }
  6666                           
  6667                           ;lcd_x8.c: 80: break;
  6668  00335C  D00D               	goto	l250
  6669  00335E                     l248:
  6670  00335E  501D               	movf	lcd_gotoxy@y,w,c
  6671                           
  6672                           ; Switch size 1, requested type "space"
  6673                           ; Number of cases is 4, Range of values is 1 to 4
  6674                           ; switch strategies available:
  6675                           ; Name         Instructions Cycles
  6676                           ; simple_byte           13     7 (average)
  6677                           ;	Chosen strategy is simple_byte
  6678  003360  0A01               	xorlw	1	; case 1
  6679  003362  B4D8               	btfsc	status,2,c
  6680  003364  D7F3               	goto	l249
  6681  003366  0A03               	xorlw	3	; case 2
  6682  003368  B4D8               	btfsc	status,2,c
  6683  00336A  D7F2               	goto	l251
  6684  00336C  0A01               	xorlw	1	; case 3
  6685  00336E  B4D8               	btfsc	status,2,c
  6686  003370  D7F1               	goto	l252
  6687  003372  0A07               	xorlw	7	; case 4
  6688  003374  B4D8               	btfsc	status,2,c
  6689  003376  D7F0               	goto	l253
  6690  003378                     l250:
  6691                           
  6692                           ;lcd_x8.c: 82: address += x - 1;
  6693  003378  041E               	decf	lcd_gotoxy@x,w,c
  6694  00337A  261F               	addwf	lcd_gotoxy@address,f,c
  6695                           
  6696                           ;lcd_x8.c: 83: lcd_send_byte(0, (unsigned char) (0x80 | address));
  6697  00337C  501F               	movf	lcd_gotoxy@address,w,c
  6698  00337E  0980               	iorlw	128
  6699  003380  6E1B               	movwf	lcd_send_byte@n,c
  6700  003382  0E00               	movlw	0
  6701  003384  EC5D  F019         	call	_lcd_send_byte
  6702  003388  0012               	return		;funcret
  6703  00338A                     __end_of_lcd_gotoxy:
  6704                           	opt stack 0
  6705                           tblptru	equ	0xFF8
  6706                           tblptrh	equ	0xFF7
  6707                           tblptrl	equ	0xFF6
  6708                           tablat	equ	0xFF5
  6709                           prodh	equ	0xFF4
  6710                           prodl	equ	0xFF3
  6711                           intcon	equ	0xFF2
  6712                           intcon2	equ	0xFF1
  6713                           intcon3	equ	0xFF0
  6714                           indf0	equ	0xFEF
  6715                           postinc0	equ	0xFEE
  6716                           fsr0h	equ	0xFEA
  6717                           fsr0l	equ	0xFE9
  6718                           wreg	equ	0xFE8
  6719                           indf1	equ	0xFE7
  6720                           postdec1	equ	0xFE5
  6721                           fsr1h	equ	0xFE2
  6722                           fsr1l	equ	0xFE1
  6723                           indf2	equ	0xFDF
  6724                           postinc2	equ	0xFDE
  6725                           postdec2	equ	0xFDD
  6726                           fsr2h	equ	0xFDA
  6727                           fsr2l	equ	0xFD9
  6728                           status	equ	0xFD8
  6729                           
  6730 ;; *************** function _lcd_init *****************
  6731 ;; Defined at:
  6732 ;;		line 46 in file "lcd_x8.c"
  6733 ;; Parameters:    Size  Location     Type
  6734 ;;		None
  6735 ;; Auto vars:     Size  Location     Type
  6736 ;;  i               1   28[COMRAM] unsigned char 
  6737 ;; Return value:  Size  Location     Type
  6738 ;;                  1    wreg      void 
  6739 ;; Registers used:
  6740 ;;		wreg, fsr2l, fsr2h, status,2, status,0, prodl, prodh, cstack
  6741 ;; Tracked objects:
  6742 ;;		On entry : 0/0
  6743 ;;		On exit  : 0/0
  6744 ;;		Unchanged: 0/0
  6745 ;; Data sizes:     COMRAM   BANK0   BANK1   BANK2   BANK3   BANK4   BANK5   BANK6   BANK7   BANK8   BANK9  BANK10  BANK1
      +1  BANK12  BANK13  BANK14  BANK15
  6746 ;;      Params:         0       0       0       0       0       0       0       0       0       0       0       0       
      +0       0       0       0       0
  6747 ;;      Locals:         1       0       0       0       0       0       0       0       0       0       0       0       
      +0       0       0       0       0
  6748 ;;      Temps:          0       0       0       0       0       0       0       0       0       0       0       0       
      +0       0       0       0       0
  6749 ;;      Totals:         1       0       0       0       0       0       0       0       0       0       0       0       
      +0       0       0       0       0
  6750 ;;Total ram usage:        1 bytes
  6751 ;; Hardware stack levels used:    1
  6752 ;; Hardware stack levels required when called:    4
  6753 ;; This function calls:
  6754 ;;		_delay_ms
  6755 ;;		_lcd_send_byte
  6756 ;;		_lcd_send_nibble
  6757 ;; This function is called by:
  6758 ;;		_main
  6759 ;; This function uses a non-reentrant model
  6760 ;;
  6761                           
  6762                           	psect	text23
  6763  003150                     __ptext23:
  6764                           	opt stack 0
  6765  003150                     _lcd_init:
  6766                           	opt stack 26
  6767                           
  6768                           ;lcd_x8.c: 48: unsigned char i;
  6769                           ;lcd_x8.c: 51: PORTEbits.RE2 = 0;
  6770                           
  6771                           ;incstack = 0
  6772  003150  9484               	bcf	3972,2,c	;volatile
  6773                           
  6774                           ;lcd_x8.c: 53: PORTEbits.RE1 = 0;
  6775  003152  9284               	bcf	3972,1,c	;volatile
  6776                           
  6777                           ;lcd_x8.c: 55: delay_ms(25);
  6778  003154  0E00               	movlw	0
  6779  003156  6E14               	movwf	delay_ms@n+1,c
  6780  003158  0E19               	movlw	25
  6781  00315A  6E13               	movwf	delay_ms@n,c
  6782  00315C  EC76  F01A         	call	_delay_ms	;wreg free
  6783                           
  6784                           ;lcd_x8.c: 56: for (i = 1; i <= 3; ++i) {
  6785  003160  0E01               	movlw	1
  6786  003162  6E1D               	movwf	lcd_init@i,c
  6787  003164                     l4748:
  6788  003164  0E03               	movlw	3
  6789  003166  641D               	cpfsgt	lcd_init@i,c
  6790  003168  D001               	goto	l241
  6791  00316A  D00B               	goto	u5230
  6792  00316C                     l241:
  6793                           
  6794                           ;lcd_x8.c: 57: lcd_send_nibble(3);
  6795  00316C  0E03               	movlw	3
  6796  00316E  ECE3  F01A         	call	_lcd_send_nibble
  6797                           
  6798                           ;lcd_x8.c: 59: delay_ms(6);
  6799  003172  0E00               	movlw	0
  6800  003174  6E14               	movwf	delay_ms@n+1,c
  6801  003176  0E06               	movlw	6
  6802  003178  6E13               	movwf	delay_ms@n,c
  6803  00317A  EC76  F01A         	call	_delay_ms	;wreg free
  6804  00317E  2A1D               	incf	lcd_init@i,f,c
  6805  003180  D7F1               	goto	l4748
  6806  003182                     u5230:
  6807                           
  6808                           ;lcd_x8.c: 60: }
  6809                           ;lcd_x8.c: 62: lcd_send_nibble(2);
  6810  003182  0E02               	movlw	2
  6811  003184  ECE3  F01A         	call	_lcd_send_nibble
  6812                           
  6813                           ;lcd_x8.c: 64: for (i = 0; i <= 3; ++i)
  6814  003188  0E00               	movlw	0
  6815  00318A  6E1D               	movwf	lcd_init@i,c
  6816  00318C                     l4762:
  6817  00318C  0E03               	movlw	3
  6818  00318E  641D               	cpfsgt	lcd_init@i,c
  6819  003190  D001               	goto	l243
  6820  003192  0012               	return	
  6821  003194                     l243:
  6822                           
  6823                           ;lcd_x8.c: 65: lcd_send_byte(0, LCD_INIT_STRING[i]);
  6824  003194  501D               	movf	lcd_init@i,w,c
  6825  003196  0D01               	mullw	1
  6826  003198  0EE0               	movlw	low _LCD_INIT_STRING
  6827  00319A  24F3               	addwf	prodl,w,c
  6828  00319C  6ED9               	movwf	fsr2l,c
  6829  00319E  0E00               	movlw	high _LCD_INIT_STRING
  6830  0031A0  20F4               	addwfc	prodh,w,c
  6831  0031A2  6EDA               	movwf	fsr2h,c
  6832  0031A4  50DF               	movf	indf2,w,c
  6833  0031A6  6E1B               	movwf	lcd_send_byte@n,c
  6834  0031A8  0E00               	movlw	0
  6835  0031AA  EC5D  F019         	call	_lcd_send_byte
  6836  0031AE  2A1D               	incf	lcd_init@i,f,c
  6837  0031B0  D7ED               	goto	l4762
  6838  0031B2                     __end_of_lcd_init:
  6839                           	opt stack 0
  6840                           tblptru	equ	0xFF8
  6841                           tblptrh	equ	0xFF7
  6842                           tblptrl	equ	0xFF6
  6843                           tablat	equ	0xFF5
  6844                           prodh	equ	0xFF4
  6845                           prodl	equ	0xFF3
  6846                           intcon	equ	0xFF2
  6847                           intcon2	equ	0xFF1
  6848                           intcon3	equ	0xFF0
  6849                           indf0	equ	0xFEF
  6850                           postinc0	equ	0xFEE
  6851                           fsr0h	equ	0xFEA
  6852                           fsr0l	equ	0xFE9
  6853                           wreg	equ	0xFE8
  6854                           indf1	equ	0xFE7
  6855                           postdec1	equ	0xFE5
  6856                           fsr1h	equ	0xFE2
  6857                           fsr1l	equ	0xFE1
  6858                           indf2	equ	0xFDF
  6859                           postinc2	equ	0xFDE
  6860                           postdec2	equ	0xFDD
  6861                           fsr2h	equ	0xFDA
  6862                           fsr2l	equ	0xFD9
  6863                           status	equ	0xFD8
  6864                           
  6865 ;; *************** function _lcd_send_byte *****************
  6866 ;; Defined at:
  6867 ;;		line 32 in file "lcd_x8.c"
  6868 ;; Parameters:    Size  Location     Type
  6869 ;;  cm_data         1    wreg     unsigned char 
  6870 ;;  n               1   26[COMRAM] unsigned char 
  6871 ;; Auto vars:     Size  Location     Type
  6872 ;;  cm_data         1   27[COMRAM] unsigned char 
  6873 ;; Return value:  Size  Location     Type
  6874 ;;                  1    wreg      void 
  6875 ;; Registers used:
  6876 ;;		wreg, status,2, status,0, cstack
  6877 ;; Tracked objects:
  6878 ;;		On entry : 0/0
  6879 ;;		On exit  : 0/0
  6880 ;;		Unchanged: 0/0
  6881 ;; Data sizes:     COMRAM   BANK0   BANK1   BANK2   BANK3   BANK4   BANK5   BANK6   BANK7   BANK8   BANK9  BANK10  BANK1
      +1  BANK12  BANK13  BANK14  BANK15
  6882 ;;      Params:         1       0       0       0       0       0       0       0       0       0       0       0       
      +0       0       0       0       0
  6883 ;;      Locals:         1       0       0       0       0       0       0       0       0       0       0       0       
      +0       0       0       0       0
  6884 ;;      Temps:          0       0       0       0       0       0       0       0       0       0       0       0       
      +0       0       0       0       0
  6885 ;;      Totals:         2       0       0       0       0       0       0       0       0       0       0       0       
      +0       0       0       0       0
  6886 ;;Total ram usage:        2 bytes
  6887 ;; Hardware stack levels used:    1
  6888 ;; Hardware stack levels required when called:    3
  6889 ;; This function calls:
  6890 ;;		_delay_cycles
  6891 ;;		_delay_ms
  6892 ;;		_lcd_send_nibble
  6893 ;; This function is called by:
  6894 ;;		_lcd_init
  6895 ;;		_lcd_gotoxy
  6896 ;;		_lcd_putc
  6897 ;;		_Lcd_Shift_Right
  6898 ;;		_Lcd_Shift_Left
  6899 ;; This function uses a non-reentrant model
  6900 ;;
  6901                           
  6902                           	psect	text24
  6903  0032BA                     __ptext24:
  6904                           	opt stack 0
  6905  0032BA                     _lcd_send_byte:
  6906                           	opt stack 24
  6907                           
  6908                           ;incstack = 0
  6909                           ;lcd_send_byte@cm_data stored from wreg
  6910  0032BA  6E1C               	movwf	lcd_send_byte@cm_data,c
  6911                           
  6912                           ;lcd_x8.c: 35: PORTEbits.RE2 = cm_data;
  6913  0032BC  B01C               	btfsc	lcd_send_byte@cm_data,0,c
  6914  0032BE  D002               	bra	u3705
  6915  0032C0  9484               	bcf	3972,2,c	;volatile
  6916  0032C2  D001               	bra	u3706
  6917  0032C4                     u3705:
  6918  0032C4  8484               	bsf	3972,2,c	;volatile
  6919  0032C6                     u3706:
  6920                           
  6921                           ;lcd_x8.c: 36: delay_cycles(1);
  6922  0032C6  0E01               	movlw	1
  6923  0032C8  EC1E  F01A         	call	_delay_cycles
  6924                           
  6925                           ;lcd_x8.c: 37: delay_cycles(1);
  6926  0032CC  0E01               	movlw	1
  6927  0032CE  EC1E  F01A         	call	_delay_cycles
  6928                           
  6929                           ;lcd_x8.c: 38: PORTEbits.RE1 = 0;
  6930  0032D2  9284               	bcf	3972,1,c	;volatile
  6931                           
  6932                           ;lcd_x8.c: 39: lcd_send_nibble(n >> 4);
  6933  0032D4  381B               	swapf	lcd_send_byte@n,w,c
  6934  0032D6  0B0F               	andlw	15
  6935  0032D8  ECE3  F01A         	call	_lcd_send_nibble
  6936                           
  6937                           ;lcd_x8.c: 40: lcd_send_nibble(n & 0x0f);
  6938  0032DC  501B               	movf	lcd_send_byte@n,w,c
  6939  0032DE  0B0F               	andlw	15
  6940  0032E0  ECE3  F01A         	call	_lcd_send_nibble
  6941                           
  6942                           ;lcd_x8.c: 41: if (cm_data) _delaywdt((unsigned long)((200)*(4000000UL/4000000.0)));
  6943  0032E4  501C               	movf	lcd_send_byte@cm_data,w,c
  6944  0032E6  B4D8               	btfsc	status,2,c
  6945  0032E8  D005               	goto	l236
  6946  0032EA  0E32               	movlw	50
  6947  0032EC                     u5477:
  6948  0032EC  0004               	clrwdt	
  6949  0032EE  2EE8               	decfsz	wreg,f,c
  6950  0032F0  D7FD               	bra	u5477
  6951  0032F2  0012               	return	
  6952  0032F4                     l236:
  6953                           
  6954                           ;lcd_x8.c: 42: else
  6955                           ;lcd_x8.c: 43: delay_ms(2);
  6956  0032F4  0E00               	movlw	0
  6957  0032F6  6E14               	movwf	delay_ms@n+1,c
  6958  0032F8  0E02               	movlw	2
  6959  0032FA  6E13               	movwf	delay_ms@n,c
  6960  0032FC  EC76  F01A         	call	_delay_ms	;wreg free
  6961  003300  0012               	return	
  6962  003302                     __end_of_lcd_send_byte:
  6963                           	opt stack 0
  6964                           tblptru	equ	0xFF8
  6965                           tblptrh	equ	0xFF7
  6966                           tblptrl	equ	0xFF6
  6967                           tablat	equ	0xFF5
  6968                           prodh	equ	0xFF4
  6969                           prodl	equ	0xFF3
  6970                           intcon	equ	0xFF2
  6971                           intcon2	equ	0xFF1
  6972                           intcon3	equ	0xFF0
  6973                           indf0	equ	0xFEF
  6974                           postinc0	equ	0xFEE
  6975                           fsr0h	equ	0xFEA
  6976                           fsr0l	equ	0xFE9
  6977                           wreg	equ	0xFE8
  6978                           indf1	equ	0xFE7
  6979                           postdec1	equ	0xFE5
  6980                           fsr1h	equ	0xFE2
  6981                           fsr1l	equ	0xFE1
  6982                           indf2	equ	0xFDF
  6983                           postinc2	equ	0xFDE
  6984                           postdec2	equ	0xFDD
  6985                           fsr2h	equ	0xFDA
  6986                           fsr2l	equ	0xFD9
  6987                           status	equ	0xFD8
  6988                           
  6989 ;; *************** function _lcd_send_nibble *****************
  6990 ;; Defined at:
  6991 ;;		line 23 in file "lcd_x8.c"
  6992 ;; Parameters:    Size  Location     Type
  6993 ;;  n               1    wreg     unsigned char 
  6994 ;; Auto vars:     Size  Location     Type
  6995 ;;  n               1   25[COMRAM] unsigned char 
  6996 ;; Return value:  Size  Location     Type
  6997 ;;                  1    wreg      void 
  6998 ;; Registers used:
  6999 ;;		wreg, status,2, status,0, cstack
  7000 ;; Tracked objects:
  7001 ;;		On entry : 0/0
  7002 ;;		On exit  : 0/0
  7003 ;;		Unchanged: 0/0
  7004 ;; Data sizes:     COMRAM   BANK0   BANK1   BANK2   BANK3   BANK4   BANK5   BANK6   BANK7   BANK8   BANK9  BANK10  BANK1
      +1  BANK12  BANK13  BANK14  BANK15
  7005 ;;      Params:         0       0       0       0       0       0       0       0       0       0       0       0       
      +0       0       0       0       0
  7006 ;;      Locals:         1       0       0       0       0       0       0       0       0       0       0       0       
      +0       0       0       0       0
  7007 ;;      Temps:          1       0       0       0       0       0       0       0       0       0       0       0       
      +0       0       0       0       0
  7008 ;;      Totals:         2       0       0       0       0       0       0       0       0       0       0       0       
      +0       0       0       0       0
  7009 ;;Total ram usage:        2 bytes
  7010 ;; Hardware stack levels used:    1
  7011 ;; Hardware stack levels required when called:    2
  7012 ;; This function calls:
  7013 ;;		_delay_cycles
  7014 ;; This function is called by:
  7015 ;;		_lcd_send_byte
  7016 ;;		_lcd_init
  7017 ;; This function uses a non-reentrant model
  7018 ;;
  7019                           
  7020                           	psect	text25
  7021  0035C6                     __ptext25:
  7022                           	opt stack 0
  7023  0035C6                     _lcd_send_nibble:
  7024                           	opt stack 24
  7025                           
  7026                           ;incstack = 0
  7027                           ;lcd_send_nibble@n stored from wreg
  7028  0035C6  6E1A               	movwf	lcd_send_nibble@n,c
  7029                           
  7030                           ;lcd_x8.c: 25: lcd.data = n;
  7031  0035C8  C01A  F019         	movff	lcd_send_nibble@n,??_lcd_send_nibble
  7032  0035CC  3A19               	swapf	??_lcd_send_nibble,f,c
  7033  0035CE  5083               	movf	3971,w,c
  7034  0035D0  1819               	xorwf	??_lcd_send_nibble,w,c
  7035  0035D2  0B0F               	andlw	-241
  7036  0035D4  1819               	xorwf	??_lcd_send_nibble,w,c
  7037  0035D6  6E83               	movwf	3971,c
  7038                           
  7039                           ;lcd_x8.c: 26: delay_cycles(1);
  7040  0035D8  0E01               	movlw	1
  7041  0035DA  EC1E  F01A         	call	_delay_cycles
  7042                           
  7043                           ;lcd_x8.c: 27: PORTEbits.RE1 = 1;
  7044  0035DE  8284               	bsf	3972,1,c	;volatile
  7045                           
  7046                           ;lcd_x8.c: 28: _delaywdt((unsigned long)((2)*(4000000UL/4000000.0)));
  7047  0035E0  0004               	clrwdt	
  7048  0035E2  F000               	nop		;2 cycle nop
  7049                           
  7050                           ;lcd_x8.c: 29: PORTEbits.RE1 = 0;
  7051  0035E4  9284               	bcf	3972,1,c	;volatile
  7052  0035E6  0012               	return		;funcret
  7053  0035E8                     __end_of_lcd_send_nibble:
  7054                           	opt stack 0
  7055                           tblptru	equ	0xFF8
  7056                           tblptrh	equ	0xFF7
  7057                           tblptrl	equ	0xFF6
  7058                           tablat	equ	0xFF5
  7059                           prodh	equ	0xFF4
  7060                           prodl	equ	0xFF3
  7061                           intcon	equ	0xFF2
  7062                           intcon2	equ	0xFF1
  7063                           intcon3	equ	0xFF0
  7064                           indf0	equ	0xFEF
  7065                           postinc0	equ	0xFEE
  7066                           fsr0h	equ	0xFEA
  7067                           fsr0l	equ	0xFE9
  7068                           wreg	equ	0xFE8
  7069                           indf1	equ	0xFE7
  7070                           postdec1	equ	0xFE5
  7071                           fsr1h	equ	0xFE2
  7072                           fsr1l	equ	0xFE1
  7073                           indf2	equ	0xFDF
  7074                           postinc2	equ	0xFDE
  7075                           postdec2	equ	0xFDD
  7076                           fsr2h	equ	0xFDA
  7077                           fsr2l	equ	0xFD9
  7078                           status	equ	0xFD8
  7079                           
  7080 ;; *************** function _delay_cycles *****************
  7081 ;; Defined at:
  7082 ;;		line 14 in file "lcd_x8.c"
  7083 ;; Parameters:    Size  Location     Type
  7084 ;;  n               1    wreg     unsigned char 
  7085 ;; Auto vars:     Size  Location     Type
  7086 ;;  n               1   21[COMRAM] unsigned char 
  7087 ;;  x               2   22[COMRAM] int 
  7088 ;; Return value:  Size  Location     Type
  7089 ;;                  1    wreg      void 
  7090 ;; Registers used:
  7091 ;;		wreg, status,2, status,0
  7092 ;; Tracked objects:
  7093 ;;		On entry : 0/0
  7094 ;;		On exit  : 0/0
  7095 ;;		Unchanged: 0/0
  7096 ;; Data sizes:     COMRAM   BANK0   BANK1   BANK2   BANK3   BANK4   BANK5   BANK6   BANK7   BANK8   BANK9  BANK10  BANK1
      +1  BANK12  BANK13  BANK14  BANK15
  7097 ;;      Params:         0       0       0       0       0       0       0       0       0       0       0       0       
      +0       0       0       0       0
  7098 ;;      Locals:         3       0       0       0       0       0       0       0       0       0       0       0       
      +0       0       0       0       0
  7099 ;;      Temps:          3       0       0       0       0       0       0       0       0       0       0       0       
      +0       0       0       0       0
  7100 ;;      Totals:         6       0       0       0       0       0       0       0       0       0       0       0       
      +0       0       0       0       0
  7101 ;;Total ram usage:        6 bytes
  7102 ;; Hardware stack levels used:    1
  7103 ;; Hardware stack levels required when called:    1
  7104 ;; This function calls:
  7105 ;;		Nothing
  7106 ;; This function is called by:
  7107 ;;		_lcd_send_nibble
  7108 ;;		_lcd_send_byte
  7109 ;; This function uses a non-reentrant model
  7110 ;;
  7111                           
  7112                           	psect	text26
  7113  00343C                     __ptext26:
  7114                           	opt stack 0
  7115  00343C                     _delay_cycles:
  7116                           	opt stack 24
  7117                           
  7118                           ;incstack = 0
  7119                           ;delay_cycles@n stored from wreg
  7120  00343C  6E16               	movwf	delay_cycles@n,c
  7121                           
  7122                           ;lcd_x8.c: 15: int x;
  7123                           ;lcd_x8.c: 16: for (x = 0; x <= n; x++) {
  7124  00343E  0E00               	movlw	0
  7125  003440  6E18               	movwf	delay_cycles@x+1,c
  7126  003442  0E00               	movlw	0
  7127  003444  6E17               	movwf	delay_cycles@x,c
  7128  003446  D003               	goto	l227
  7129  003448                     l228:
  7130  003448  0004               	clrwdt		;# 
  7131  00344A  4A17               	infsnz	delay_cycles@x,f,c
  7132  00344C  2A18               	incf	delay_cycles@x+1,f,c
  7133  00344E                     l227:
  7134  00344E  5016               	movf	delay_cycles@n,w,c
  7135  003450  6E13               	movwf	??_delay_cycles& (0+255),c
  7136  003452  6A14               	clrf	(??_delay_cycles+1)& (0+255),c
  7137  003454  5017               	movf	delay_cycles@x,w,c
  7138  003456  5C13               	subwf	??_delay_cycles,w,c
  7139  003458  5014               	movf	??_delay_cycles+1,w,c
  7140  00345A  0A80               	xorlw	128
  7141  00345C  6E15               	movwf	(??_delay_cycles+2)& (0+255),c
  7142  00345E  5018               	movf	delay_cycles@x+1,w,c
  7143  003460  0A80               	xorlw	128
  7144  003462  5815               	subwfb	(??_delay_cycles+2)& (0+255),w,c
  7145  003464  A0D8               	btfss	status,0,c
  7146  003466  0012               	return	
  7147  003468  D7EF               	goto	l228
  7148  00346A                     __end_of_delay_cycles:
  7149                           	opt stack 0
  7150                           tblptru	equ	0xFF8
  7151                           tblptrh	equ	0xFF7
  7152                           tblptrl	equ	0xFF6
  7153                           tablat	equ	0xFF5
  7154                           prodh	equ	0xFF4
  7155                           prodl	equ	0xFF3
  7156                           intcon	equ	0xFF2
  7157                           intcon2	equ	0xFF1
  7158                           intcon3	equ	0xFF0
  7159                           indf0	equ	0xFEF
  7160                           postinc0	equ	0xFEE
  7161                           fsr0h	equ	0xFEA
  7162                           fsr0l	equ	0xFE9
  7163                           wreg	equ	0xFE8
  7164                           indf1	equ	0xFE7
  7165                           postdec1	equ	0xFE5
  7166                           fsr1h	equ	0xFE2
  7167                           fsr1l	equ	0xFE1
  7168                           indf2	equ	0xFDF
  7169                           postinc2	equ	0xFDE
  7170                           postdec2	equ	0xFDD
  7171                           fsr2h	equ	0xFDA
  7172                           fsr2l	equ	0xFD9
  7173                           status	equ	0xFD8
  7174                           
  7175 ;; *************** function _delay_ms *****************
  7176 ;; Defined at:
  7177 ;;		line 7 in file "lcd_x8.c"
  7178 ;; Parameters:    Size  Location     Type
  7179 ;;  n               2   18[COMRAM] unsigned int 
  7180 ;; Auto vars:     Size  Location     Type
  7181 ;;  x               2   20[COMRAM] int 
  7182 ;; Return value:  Size  Location     Type
  7183 ;;                  1    wreg      void 
  7184 ;; Registers used:
  7185 ;;		wreg, status,2, status,0
  7186 ;; Tracked objects:
  7187 ;;		On entry : 0/0
  7188 ;;		On exit  : 0/0
  7189 ;;		Unchanged: 0/0
  7190 ;; Data sizes:     COMRAM   BANK0   BANK1   BANK2   BANK3   BANK4   BANK5   BANK6   BANK7   BANK8   BANK9  BANK10  BANK1
      +1  BANK12  BANK13  BANK14  BANK15
  7191 ;;      Params:         2       0       0       0       0       0       0       0       0       0       0       0       
      +0       0       0       0       0
  7192 ;;      Locals:         2       0       0       0       0       0       0       0       0       0       0       0       
      +0       0       0       0       0
  7193 ;;      Temps:          0       0       0       0       0       0       0       0       0       0       0       0       
      +0       0       0       0       0
  7194 ;;      Totals:         4       0       0       0       0       0       0       0       0       0       0       0       
      +0       0       0       0       0
  7195 ;;Total ram usage:        4 bytes
  7196 ;; Hardware stack levels used:    1
  7197 ;; Hardware stack levels required when called:    1
  7198 ;; This function calls:
  7199 ;;		Nothing
  7200 ;; This function is called by:
  7201 ;;		_main
  7202 ;;		_lcd_send_byte
  7203 ;;		_lcd_init
  7204 ;;		_lcd_putc
  7205 ;; This function uses a non-reentrant model
  7206 ;;
  7207                           
  7208                           	psect	text27
  7209  0034EC                     __ptext27:
  7210                           	opt stack 0
  7211  0034EC                     _delay_ms:
  7212                           	opt stack 25
  7213                           
  7214                           ;lcd_x8.c: 8: int x;
  7215                           ;lcd_x8.c: 9: for (x = 0; x <= n; x++) {
  7216                           
  7217                           ;incstack = 0
  7218  0034EC  0E00               	movlw	0
  7219  0034EE  6E16               	movwf	delay_ms@x+1,c
  7220  0034F0  0E00               	movlw	0
  7221  0034F2  6E15               	movwf	delay_ms@x,c
  7222  0034F4  D007               	goto	l221
  7223  0034F6                     
  7224                           ;lcd_x8.c: 10: _delaywdt((unsigned long)((1)*(4000000UL/4000.0)));
  7225  0034F6  0EC8               	movlw	200
  7226  0034F8                     u5487:
  7227  0034F8  0004               	clrwdt	
  7228  0034FA  0004               	clrwdt	
  7229  0034FC  2EE8               	decfsz	wreg,f,c
  7230  0034FE  D7FC               	bra	u5487
  7231  003500  4A15               	infsnz	delay_ms@x,f,c
  7232  003502  2A16               	incf	delay_ms@x+1,f,c
  7233  003504                     l221:
  7234  003504  5015               	movf	delay_ms@x,w,c
  7235  003506  5C13               	subwf	delay_ms@n,w,c
  7236  003508  5016               	movf	delay_ms@x+1,w,c
  7237  00350A  5814               	subwfb	delay_ms@n+1,w,c
  7238  00350C  A0D8               	btfss	status,0,c
  7239  00350E  0012               	return	
  7240  003510  D7F2               	goto	l222
  7241  003512                     __end_of_delay_ms:
  7242                           	opt stack 0
  7243                           tblptru	equ	0xFF8
  7244                           tblptrh	equ	0xFF7
  7245                           tblptrl	equ	0xFF6
  7246                           tablat	equ	0xFF5
  7247                           prodh	equ	0xFF4
  7248                           prodl	equ	0xFF3
  7249                           intcon	equ	0xFF2
  7250                           intcon2	equ	0xFF1
  7251                           intcon3	equ	0xFF0
  7252                           indf0	equ	0xFEF
  7253                           postinc0	equ	0xFEE
  7254                           fsr0h	equ	0xFEA
  7255                           fsr0l	equ	0xFE9
  7256                           wreg	equ	0xFE8
  7257                           indf1	equ	0xFE7
  7258                           postdec1	equ	0xFE5
  7259                           fsr1h	equ	0xFE2
  7260                           fsr1l	equ	0xFE1
  7261                           indf2	equ	0xFDF
  7262                           postinc2	equ	0xFDE
  7263                           postdec2	equ	0xFDD
  7264                           fsr2h	equ	0xFDA
  7265                           fsr2l	equ	0xFD9
  7266                           status	equ	0xFD8
  7267                           
  7268 ;; *************** function _init_adc_no_lib *****************
  7269 ;; Defined at:
  7270 ;;		line 6 in file "my_adc.c"
  7271 ;; Parameters:    Size  Location     Type
  7272 ;;		None
  7273 ;; Auto vars:     Size  Location     Type
  7274 ;;		None
  7275 ;; Return value:  Size  Location     Type
  7276 ;;                  1    wreg      void 
  7277 ;; Registers used:
  7278 ;;		wreg, status,2
  7279 ;; Tracked objects:
  7280 ;;		On entry : 0/0
  7281 ;;		On exit  : 0/0
  7282 ;;		Unchanged: 0/0
  7283 ;; Data sizes:     COMRAM   BANK0   BANK1   BANK2   BANK3   BANK4   BANK5   BANK6   BANK7   BANK8   BANK9  BANK10  BANK1
      +1  BANK12  BANK13  BANK14  BANK15
  7284 ;;      Params:         0       0       0       0       0       0       0       0       0       0       0       0       
      +0       0       0       0       0
  7285 ;;      Locals:         0       0       0       0       0       0       0       0       0       0       0       0       
      +0       0       0       0       0
  7286 ;;      Temps:          0       0       0       0       0       0       0       0       0       0       0       0       
      +0       0       0       0       0
  7287 ;;      Totals:         0       0       0       0       0       0       0       0       0       0       0       0       
      +0       0       0       0       0
  7288 ;;Total ram usage:        0 bytes
  7289 ;; Hardware stack levels used:    1
  7290 ;; Hardware stack levels required when called:    1
  7291 ;; This function calls:
  7292 ;;		Nothing
  7293 ;; This function is called by:
  7294 ;;		_main
  7295 ;; This function uses a non-reentrant model
  7296 ;;
  7297                           
  7298                           	psect	text28
  7299  00364C                     __ptext28:
  7300                           	opt stack 0
  7301  00364C                     _init_adc_no_lib:
  7302                           	opt stack 29
  7303                           
  7304                           ;my_adc.c: 8: ADCON0 = 0;
  7305                           
  7306                           ;incstack = 0
  7307  00364C  0E00               	movlw	0
  7308  00364E  6EC2               	movwf	4034,c	;volatile
  7309                           
  7310                           ;my_adc.c: 9: ADCON0bits.ADON = 1;
  7311  003650  80C2               	bsf	4034,0,c	;volatile
  7312                           
  7313                           ;my_adc.c: 11: ADCON2 = 0b10001001;
  7314  003652  0E89               	movlw	137
  7315  003654  6EC0               	movwf	4032,c	;volatile
  7316  003656  0012               	return		;funcret
  7317  003658                     __end_of_init_adc_no_lib:
  7318                           	opt stack 0
  7319                           tblptru	equ	0xFF8
  7320                           tblptrh	equ	0xFF7
  7321                           tblptrl	equ	0xFF6
  7322                           tablat	equ	0xFF5
  7323                           prodh	equ	0xFF4
  7324                           prodl	equ	0xFF3
  7325                           intcon	equ	0xFF2
  7326                           intcon2	equ	0xFF1
  7327                           intcon3	equ	0xFF0
  7328                           indf0	equ	0xFEF
  7329                           postinc0	equ	0xFEE
  7330                           fsr0h	equ	0xFEA
  7331                           fsr0l	equ	0xFE9
  7332                           wreg	equ	0xFE8
  7333                           indf1	equ	0xFE7
  7334                           postdec1	equ	0xFE5
  7335                           fsr1h	equ	0xFE2
  7336                           fsr1l	equ	0xFE1
  7337                           indf2	equ	0xFDF
  7338                           postinc2	equ	0xFDE
  7339                           postdec2	equ	0xFDD
  7340                           fsr2h	equ	0xFDA
  7341                           fsr2l	equ	0xFD9
  7342                           status	equ	0xFD8
  7343                           
  7344 ;; *************** function _initPorts *****************
  7345 ;; Defined at:
  7346 ;;		line 170 in file "Hw2.c"
  7347 ;; Parameters:    Size  Location     Type
  7348 ;;		None
  7349 ;; Auto vars:     Size  Location     Type
  7350 ;;		None
  7351 ;; Return value:  Size  Location     Type
  7352 ;;                  1    wreg      void 
  7353 ;; Registers used:
  7354 ;;		wreg, status,2
  7355 ;; Tracked objects:
  7356 ;;		On entry : 0/0
  7357 ;;		On exit  : 0/0
  7358 ;;		Unchanged: 0/0
  7359 ;; Data sizes:     COMRAM   BANK0   BANK1   BANK2   BANK3   BANK4   BANK5   BANK6   BANK7   BANK8   BANK9  BANK10  BANK1
      +1  BANK12  BANK13  BANK14  BANK15
  7360 ;;      Params:         0       0       0       0       0       0       0       0       0       0       0       0       
      +0       0       0       0       0
  7361 ;;      Locals:         0       0       0       0       0       0       0       0       0       0       0       0       
      +0       0       0       0       0
  7362 ;;      Temps:          0       0       0       0       0       0       0       0       0       0       0       0       
      +0       0       0       0       0
  7363 ;;      Totals:         0       0       0       0       0       0       0       0       0       0       0       0       
      +0       0       0       0       0
  7364 ;;Total ram usage:        0 bytes
  7365 ;; Hardware stack levels used:    1
  7366 ;; Hardware stack levels required when called:    1
  7367 ;; This function calls:
  7368 ;;		Nothing
  7369 ;; This function is called by:
  7370 ;;		_main
  7371 ;; This function uses a non-reentrant model
  7372 ;;
  7373                           
  7374                           	psect	text29
  7375  00346A                     __ptext29:
  7376                           	opt stack 0
  7377  00346A                     _initPorts:
  7378                           	opt stack 29
  7379                           
  7380                           ;Hw2.c: 172: ADCON1 = 0b00001100;
  7381                           
  7382                           ;incstack = 0
  7383  00346A  0E0C               	movlw	12
  7384  00346C  6EC1               	movwf	4033,c	;volatile
  7385                           
  7386                           ;Hw2.c: 174: LATA = LATB = LATC = LATD = LATE = 0;
  7387  00346E  0E00               	movlw	0
  7388  003470  6E8D               	movwf	3981,c	;volatile
  7389  003472  CF8D FF8C          	movff	3981,3980	;volatile
  7390  003476  CF8C FF8B          	movff	3980,3979	;volatile
  7391  00347A  CF8B FF8A          	movff	3979,3978	;volatile
  7392  00347E  CF8A FF89          	movff	3978,3977	;volatile
  7393                           
  7394                           ;Hw2.c: 176: TRISA = 0xFF;
  7395  003482  6892               	setf	3986,c	;volatile
  7396                           
  7397                           ;Hw2.c: 177: TRISB = 0xFF;
  7398  003484  6893               	setf	3987,c	;volatile
  7399                           
  7400                           ;Hw2.c: 178: TRISC = 0x00;
  7401  003486  0E00               	movlw	0
  7402  003488  6E94               	movwf	3988,c	;volatile
  7403                           
  7404                           ;Hw2.c: 179: TRISD = 0x00;
  7405  00348A  0E00               	movlw	0
  7406  00348C  6E95               	movwf	3989,c	;volatile
  7407                           
  7408                           ;Hw2.c: 180: TRISE = 0x00;
  7409  00348E  0E00               	movlw	0
  7410  003490  6E96               	movwf	3990,c	;volatile
  7411                           
  7412                           ;Hw2.c: 182: PORTCbits.RC5 = 0;
  7413  003492  9A82               	bcf	3970,5,c	;volatile
  7414                           
  7415                           ;Hw2.c: 183: PORTCbits.RC2 = 0;
  7416  003494  9482               	bcf	3970,2,c	;volatile
  7417  003496  0012               	return		;funcret
  7418  003498                     __end_of_initPorts:
  7419                           	opt stack 0
  7420                           tblptru	equ	0xFF8
  7421                           tblptrh	equ	0xFF7
  7422                           tblptrl	equ	0xFF6
  7423                           tablat	equ	0xFF5
  7424                           prodh	equ	0xFF4
  7425                           prodl	equ	0xFF3
  7426                           intcon	equ	0xFF2
  7427                           intcon2	equ	0xFF1
  7428                           intcon3	equ	0xFF0
  7429                           indf0	equ	0xFEF
  7430                           postinc0	equ	0xFEE
  7431                           fsr0h	equ	0xFEA
  7432                           fsr0l	equ	0xFE9
  7433                           wreg	equ	0xFE8
  7434                           indf1	equ	0xFE7
  7435                           postdec1	equ	0xFE5
  7436                           fsr1h	equ	0xFE2
  7437                           fsr1l	equ	0xFE1
  7438                           indf2	equ	0xFDF
  7439                           postinc2	equ	0xFDE
  7440                           postdec2	equ	0xFDD
  7441                           fsr2h	equ	0xFDA
  7442                           fsr2l	equ	0xFD9
  7443                           status	equ	0xFD8
  7444                           
  7445 ;; *************** function ___lwtoft *****************
  7446 ;; Defined at:
  7447 ;;		line 28 in file "C:\Program Files (x86)\Microchip\xc8\v1.45\sources\common\lwtoft.c"
  7448 ;; Parameters:    Size  Location     Type
  7449 ;;  c               2   26[COMRAM] unsigned int 
  7450 ;; Auto vars:     Size  Location     Type
  7451 ;;		None
  7452 ;; Return value:  Size  Location     Type
  7453 ;;                  3   26[COMRAM] float 
  7454 ;; Registers used:
  7455 ;;		wreg, status,2, status,0, cstack
  7456 ;; Tracked objects:
  7457 ;;		On entry : 0/0
  7458 ;;		On exit  : 0/0
  7459 ;;		Unchanged: 0/0
  7460 ;; Data sizes:     COMRAM   BANK0   BANK1   BANK2   BANK3   BANK4   BANK5   BANK6   BANK7   BANK8   BANK9  BANK10  BANK1
      +1  BANK12  BANK13  BANK14  BANK15
  7461 ;;      Params:         3       0       0       0       0       0       0       0       0       0       0       0       
      +0       0       0       0       0
  7462 ;;      Locals:         0       0       0       0       0       0       0       0       0       0       0       0       
      +0       0       0       0       0
  7463 ;;      Temps:          0       0       0       0       0       0       0       0       0       0       0       0       
      +0       0       0       0       0
  7464 ;;      Totals:         3       0       0       0       0       0       0       0       0       0       0       0       
      +0       0       0       0       0
  7465 ;;Total ram usage:        3 bytes
  7466 ;; Hardware stack levels used:    1
  7467 ;; Hardware stack levels required when called:    2
  7468 ;; This function calls:
  7469 ;;		___ftpack
  7470 ;; This function is called by:
  7471 ;;		_main
  7472 ;; This function uses a non-reentrant model
  7473 ;;
  7474                           
  7475                           	psect	text30
  7476  003538                     __ptext30:
  7477                           	opt stack 0
  7478  003538                     ___lwtoft:
  7479                           	opt stack 28
  7480                           
  7481                           ;incstack = 0
  7482  003538  C01B  F013         	movff	___lwtoft@c,___ftpack@arg
  7483  00353C  C01C  F014         	movff	___lwtoft@c+1,___ftpack@arg+1
  7484  003540  6A15               	clrf	___ftpack@arg+2,c
  7485  003542  0E8E               	movlw	142
  7486  003544  6E16               	movwf	___ftpack@exp,c
  7487  003546  0E00               	movlw	0
  7488  003548  6E17               	movwf	___ftpack@sign,c
  7489  00354A  EC1B  F017         	call	___ftpack	;wreg free
  7490  00354E  C013  F01B         	movff	?___ftpack,?___lwtoft
  7491  003552  C014  F01C         	movff	?___ftpack+1,?___lwtoft+1
  7492  003556  C015  F01D         	movff	?___ftpack+2,?___lwtoft+2
  7493  00355A  0012               	return	
  7494  00355C                     __end_of___lwtoft:
  7495                           	opt stack 0
  7496                           tblptru	equ	0xFF8
  7497                           tblptrh	equ	0xFF7
  7498                           tblptrl	equ	0xFF6
  7499                           tablat	equ	0xFF5
  7500                           prodh	equ	0xFF4
  7501                           prodl	equ	0xFF3
  7502                           intcon	equ	0xFF2
  7503                           intcon2	equ	0xFF1
  7504                           intcon3	equ	0xFF0
  7505                           indf0	equ	0xFEF
  7506                           postinc0	equ	0xFEE
  7507                           fsr0h	equ	0xFEA
  7508                           fsr0l	equ	0xFE9
  7509                           wreg	equ	0xFE8
  7510                           indf1	equ	0xFE7
  7511                           postdec1	equ	0xFE5
  7512                           fsr1h	equ	0xFE2
  7513                           fsr1l	equ	0xFE1
  7514                           indf2	equ	0xFDF
  7515                           postinc2	equ	0xFDE
  7516                           postdec2	equ	0xFDD
  7517                           fsr2h	equ	0xFDA
  7518                           fsr2l	equ	0xFD9
  7519                           status	equ	0xFD8
  7520                           
  7521 ;; *************** function ___ftdiv *****************
  7522 ;; Defined at:
  7523 ;;		line 54 in file "C:\Program Files (x86)\Microchip\xc8\v1.45\sources\common\ftdiv.c"
  7524 ;; Parameters:    Size  Location     Type
  7525 ;;  f1              3   53[COMRAM] float 
  7526 ;;  f2              3   56[COMRAM] float 
  7527 ;; Auto vars:     Size  Location     Type
  7528 ;;  f3              3   63[COMRAM] float 
  7529 ;;  sign            1   67[COMRAM] unsigned char 
  7530 ;;  exp             1   66[COMRAM] unsigned char 
  7531 ;;  cntr            1   62[COMRAM] unsigned char 
  7532 ;; Return value:  Size  Location     Type
  7533 ;;                  3   53[COMRAM] float 
  7534 ;; Registers used:
  7535 ;;		wreg, status,2, status,0, cstack
  7536 ;; Tracked objects:
  7537 ;;		On entry : 0/0
  7538 ;;		On exit  : 0/0
  7539 ;;		Unchanged: 0/0
  7540 ;; Data sizes:     COMRAM   BANK0   BANK1   BANK2   BANK3   BANK4   BANK5   BANK6   BANK7   BANK8   BANK9  BANK10  BANK1
      +1  BANK12  BANK13  BANK14  BANK15
  7541 ;;      Params:         6       0       0       0       0       0       0       0       0       0       0       0       
      +0       0       0       0       0
  7542 ;;      Locals:         6       0       0       0       0       0       0       0       0       0       0       0       
      +0       0       0       0       0
  7543 ;;      Temps:          3       0       0       0       0       0       0       0       0       0       0       0       
      +0       0       0       0       0
  7544 ;;      Totals:        15       0       0       0       0       0       0       0       0       0       0       0       
      +0       0       0       0       0
  7545 ;;Total ram usage:       15 bytes
  7546 ;; Hardware stack levels used:    1
  7547 ;; Hardware stack levels required when called:    2
  7548 ;; This function calls:
  7549 ;;		___ftpack
  7550 ;; This function is called by:
  7551 ;;		_main
  7552 ;;		_set_pwm1_percent
  7553 ;;		_set_pwm1_voltage
  7554 ;;		_set_pwm1_general
  7555 ;;		_read_adc_voltage
  7556 ;; This function uses a non-reentrant model
  7557 ;;
  7558                           
  7559                           	psect	text31
  7560  002BC0                     __ptext31:
  7561                           	opt stack 0
  7562  002BC0                     ___ftdiv:
  7563                           	opt stack 28
  7564                           
  7565                           ;incstack = 0
  7566  002BC0  C038  F03C         	movff	___ftdiv@f1+2,??___ftdiv
  7567  002BC4  6A3D               	clrf	(??___ftdiv+1)& (0+255),c
  7568  002BC6  6A3E               	clrf	(??___ftdiv+2)& (0+255),c
  7569  002BC8  3437               	rlcf	___ftdiv@f1+1,w,c
  7570  002BCA  363C               	rlcf	??___ftdiv& (0+255),f,c
  7571  002BCC  E301               	bnc	u5301
  7572  002BCE  803D               	bsf	(??___ftdiv+1)& (0+255),0,c
  7573  002BD0                     u5301:
  7574  002BD0  503C               	movf	??___ftdiv,w,c
  7575  002BD2  6E43               	movwf	___ftdiv@exp,c
  7576  002BD4  5043               	movf	___ftdiv@exp,w,c
  7577  002BD6  A4D8               	btfss	status,2,c
  7578  002BD8  D007               	goto	l755
  7579  002BDA  0E00               	movlw	0
  7580  002BDC  6E36               	movwf	?___ftdiv,c
  7581  002BDE  0E00               	movlw	0
  7582  002BE0  6E37               	movwf	?___ftdiv+1,c
  7583  002BE2  0E00               	movlw	0
  7584  002BE4  6E38               	movwf	?___ftdiv+2,c
  7585  002BE6  0012               	return	
  7586  002BE8                     l755:
  7587  002BE8  C03B  F03C         	movff	___ftdiv@f2+2,??___ftdiv
  7588  002BEC  6A3D               	clrf	(??___ftdiv+1)& (0+255),c
  7589  002BEE  6A3E               	clrf	(??___ftdiv+2)& (0+255),c
  7590  002BF0  343A               	rlcf	___ftdiv@f2+1,w,c
  7591  002BF2  363C               	rlcf	??___ftdiv& (0+255),f,c
  7592  002BF4  E301               	bnc	u5321
  7593  002BF6  803D               	bsf	(??___ftdiv+1)& (0+255),0,c
  7594  002BF8                     u5321:
  7595  002BF8  503C               	movf	??___ftdiv,w,c
  7596  002BFA  6E44               	movwf	___ftdiv@sign,c
  7597  002BFC  5044               	movf	___ftdiv@sign,w,c
  7598  002BFE  A4D8               	btfss	status,2,c
  7599  002C00  D007               	goto	l757
  7600  002C02  0E00               	movlw	0
  7601  002C04  6E36               	movwf	?___ftdiv,c
  7602  002C06  0E00               	movlw	0
  7603  002C08  6E37               	movwf	?___ftdiv+1,c
  7604  002C0A  0E00               	movlw	0
  7605  002C0C  6E38               	movwf	?___ftdiv+2,c
  7606  002C0E  0012               	return	
  7607  002C10                     l757:
  7608  002C10  0E00               	movlw	0
  7609  002C12  6E40               	movwf	___ftdiv@f3,c
  7610  002C14  0E00               	movlw	0
  7611  002C16  6E41               	movwf	___ftdiv@f3+1,c
  7612  002C18  0E00               	movlw	0
  7613  002C1A  6E42               	movwf	___ftdiv@f3+2,c
  7614  002C1C  5044               	movf	___ftdiv@sign,w,c
  7615  002C1E  0F89               	addlw	137
  7616  002C20  5E43               	subwf	___ftdiv@exp,f,c
  7617  002C22  C038  F044         	movff	___ftdiv@f1+2,___ftdiv@sign
  7618  002C26  503B               	movf	___ftdiv@f2+2,w,c
  7619  002C28  1A44               	xorwf	___ftdiv@sign,f,c
  7620  002C2A  0E80               	movlw	128
  7621  002C2C  1644               	andwf	___ftdiv@sign,f,c
  7622  002C2E  8E37               	bsf	___ftdiv@f1+1,7,c
  7623  002C30  0EFF               	movlw	255
  7624  002C32  1636               	andwf	___ftdiv@f1,f,c
  7625  002C34  0EFF               	movlw	255
  7626  002C36  1637               	andwf	___ftdiv@f1+1,f,c
  7627  002C38  0E00               	movlw	0
  7628  002C3A  1638               	andwf	___ftdiv@f1+2,f,c
  7629  002C3C  8E3A               	bsf	___ftdiv@f2+1,7,c
  7630  002C3E  0EFF               	movlw	255
  7631  002C40  1639               	andwf	___ftdiv@f2,f,c
  7632  002C42  0EFF               	movlw	255
  7633  002C44  163A               	andwf	___ftdiv@f2+1,f,c
  7634  002C46  0E00               	movlw	0
  7635  002C48  163B               	andwf	___ftdiv@f2+2,f,c
  7636  002C4A  0E18               	movlw	24
  7637  002C4C  6E3F               	movwf	___ftdiv@cntr,c
  7638  002C4E  90D8               	bcf	status,0,c
  7639  002C50  3640               	rlcf	___ftdiv@f3,f,c
  7640  002C52  3641               	rlcf	___ftdiv@f3+1,f,c
  7641  002C54  3642               	rlcf	___ftdiv@f3+2,f,c
  7642  002C56  5039               	movf	___ftdiv@f2,w,c
  7643  002C58  5C36               	subwf	___ftdiv@f1,w,c
  7644  002C5A  503A               	movf	___ftdiv@f2+1,w,c
  7645  002C5C  5837               	subwfb	___ftdiv@f1+1,w,c
  7646  002C5E  503B               	movf	___ftdiv@f2+2,w,c
  7647  002C60  5838               	subwfb	___ftdiv@f1+2,w,c
  7648  002C62  A0D8               	btfss	status,0,c
  7649  002C64  D007               	goto	l759
  7650  002C66  5039               	movf	___ftdiv@f2,w,c
  7651  002C68  5E36               	subwf	___ftdiv@f1,f,c
  7652  002C6A  503A               	movf	___ftdiv@f2+1,w,c
  7653  002C6C  5A37               	subwfb	___ftdiv@f1+1,f,c
  7654  002C6E  503B               	movf	___ftdiv@f2+2,w,c
  7655  002C70  5A38               	subwfb	___ftdiv@f1+2,f,c
  7656  002C72  8040               	bsf	___ftdiv@f3,0,c
  7657  002C74                     l759:
  7658  002C74  90D8               	bcf	status,0,c
  7659  002C76  3636               	rlcf	___ftdiv@f1,f,c
  7660  002C78  3637               	rlcf	___ftdiv@f1+1,f,c
  7661  002C7A  3638               	rlcf	___ftdiv@f1+2,f,c
  7662  002C7C  2E3F               	decfsz	___ftdiv@cntr,f,c
  7663  002C7E  D7E7               	goto	l758
  7664  002C80  C040  F013         	movff	___ftdiv@f3,___ftpack@arg
  7665  002C84  C041  F014         	movff	___ftdiv@f3+1,___ftpack@arg+1
  7666  002C88  C042  F015         	movff	___ftdiv@f3+2,___ftpack@arg+2
  7667  002C8C  C043  F016         	movff	___ftdiv@exp,___ftpack@exp
  7668  002C90  C044  F017         	movff	___ftdiv@sign,___ftpack@sign
  7669  002C94  EC1B  F017         	call	___ftpack	;wreg free
  7670  002C98  C013  F036         	movff	?___ftpack,?___ftdiv
  7671  002C9C  C014  F037         	movff	?___ftpack+1,?___ftdiv+1
  7672  002CA0  C015  F038         	movff	?___ftpack+2,?___ftdiv+2
  7673  002CA4  0012               	return	
  7674  002CA6                     __end_of___ftdiv:
  7675                           	opt stack 0
  7676                           tblptru	equ	0xFF8
  7677                           tblptrh	equ	0xFF7
  7678                           tblptrl	equ	0xFF6
  7679                           tablat	equ	0xFF5
  7680                           prodh	equ	0xFF4
  7681                           prodl	equ	0xFF3
  7682                           intcon	equ	0xFF2
  7683                           intcon2	equ	0xFF1
  7684                           intcon3	equ	0xFF0
  7685                           indf0	equ	0xFEF
  7686                           postinc0	equ	0xFEE
  7687                           fsr0h	equ	0xFEA
  7688                           fsr0l	equ	0xFE9
  7689                           wreg	equ	0xFE8
  7690                           indf1	equ	0xFE7
  7691                           postdec1	equ	0xFE5
  7692                           fsr1h	equ	0xFE2
  7693                           fsr1l	equ	0xFE1
  7694                           indf2	equ	0xFDF
  7695                           postinc2	equ	0xFDE
  7696                           postdec2	equ	0xFDD
  7697                           fsr2h	equ	0xFDA
  7698                           fsr2l	equ	0xFD9
  7699                           status	equ	0xFD8
  7700                           
  7701 ;; *************** function _OffMode *****************
  7702 ;; Defined at:
  7703 ;;		line 274 in file "Hw2.c"
  7704 ;; Parameters:    Size  Location     Type
  7705 ;;		None
  7706 ;; Auto vars:     Size  Location     Type
  7707 ;;		None
  7708 ;; Return value:  Size  Location     Type
  7709 ;;                  1    wreg      void 
  7710 ;; Registers used:
  7711 ;;		wreg, status,2
  7712 ;; Tracked objects:
  7713 ;;		On entry : 0/0
  7714 ;;		On exit  : 0/0
  7715 ;;		Unchanged: 0/0
  7716 ;; Data sizes:     COMRAM   BANK0   BANK1   BANK2   BANK3   BANK4   BANK5   BANK6   BANK7   BANK8   BANK9  BANK10  BANK1
      +1  BANK12  BANK13  BANK14  BANK15
  7717 ;;      Params:         0       0       0       0       0       0       0       0       0       0       0       0       
      +0       0       0       0       0
  7718 ;;      Locals:         0       0       0       0       0       0       0       0       0       0       0       0       
      +0       0       0       0       0
  7719 ;;      Temps:          0       0       0       0       0       0       0       0       0       0       0       0       
      +0       0       0       0       0
  7720 ;;      Totals:         0       0       0       0       0       0       0       0       0       0       0       0       
      +0       0       0       0       0
  7721 ;;Total ram usage:        0 bytes
  7722 ;; Hardware stack levels used:    1
  7723 ;; Hardware stack levels required when called:    1
  7724 ;; This function calls:
  7725 ;;		Nothing
  7726 ;; This function is called by:
  7727 ;;		_main
  7728 ;; This function uses a non-reentrant model
  7729 ;;
  7730                           
  7731                           	psect	text32
  7732  003626                     __ptext32:
  7733                           	opt stack 0
  7734  003626                     _OffMode:
  7735                           	opt stack 29
  7736                           
  7737                           ;Hw2.c: 276: heaterOn = 0;
  7738                           
  7739                           ;incstack = 0
  7740  003626  0E00               	movlw	0
  7741  003628  6E65               	movwf	_heaterOn,c
  7742                           
  7743                           ;Hw2.c: 277: coolerOn = 0;
  7744  00362A  0E00               	movlw	0
  7745  00362C  6E64               	movwf	_coolerOn,c
  7746                           
  7747                           ;Hw2.c: 279: PORTCbits.RC5 = 0;
  7748  00362E  9A82               	bcf	3970,5,c	;volatile
  7749                           
  7750                           ;Hw2.c: 280: PORTCbits.RC2 = 0;
  7751  003630  9482               	bcf	3970,2,c	;volatile
  7752                           
  7753                           ;Hw2.c: 282: CCP1CON = 0x00;
  7754  003632  0E00               	movlw	0
  7755  003634  6EBD               	movwf	4029,c	;volatile
  7756                           
  7757                           ;Hw2.c: 283: PIE1bits.TMR1IE = 0;
  7758  003636  909D               	bcf	3997,0,c	;volatile
  7759                           
  7760                           ;Hw2.c: 284: PIE2bits.CCP2IE = 0;
  7761  003638  90A0               	bcf	4000,0,c	;volatile
  7762  00363A  0012               	return		;funcret
  7763  00363C                     __end_of_OffMode:
  7764                           	opt stack 0
  7765                           tblptru	equ	0xFF8
  7766                           tblptrh	equ	0xFF7
  7767                           tblptrl	equ	0xFF6
  7768                           tablat	equ	0xFF5
  7769                           prodh	equ	0xFF4
  7770                           prodl	equ	0xFF3
  7771                           intcon	equ	0xFF2
  7772                           intcon2	equ	0xFF1
  7773                           intcon3	equ	0xFF0
  7774                           indf0	equ	0xFEF
  7775                           postinc0	equ	0xFEE
  7776                           fsr0h	equ	0xFEA
  7777                           fsr0l	equ	0xFE9
  7778                           wreg	equ	0xFE8
  7779                           indf1	equ	0xFE7
  7780                           postdec1	equ	0xFE5
  7781                           fsr1h	equ	0xFE2
  7782                           fsr1l	equ	0xFE1
  7783                           indf2	equ	0xFDF
  7784                           postinc2	equ	0xFDE
  7785                           postdec2	equ	0xFDD
  7786                           fsr2h	equ	0xFDA
  7787                           fsr2l	equ	0xFD9
  7788                           status	equ	0xFD8
  7789                           
  7790 ;; *************** function _AutoCoolMode *****************
  7791 ;; Defined at:
  7792 ;;		line 326 in file "Hw2.c"
  7793 ;; Parameters:    Size  Location     Type
  7794 ;;		None
  7795 ;; Auto vars:     Size  Location     Type
  7796 ;;  coolError       3   84[COMRAM] float 
  7797 ;; Return value:  Size  Location     Type
  7798 ;;                  1    wreg      void 
  7799 ;; Registers used:
  7800 ;;		wreg, status,2, status,0, cstack
  7801 ;; Tracked objects:
  7802 ;;		On entry : 0/0
  7803 ;;		On exit  : 0/0
  7804 ;;		Unchanged: 0/0
  7805 ;; Data sizes:     COMRAM   BANK0   BANK1   BANK2   BANK3   BANK4   BANK5   BANK6   BANK7   BANK8   BANK9  BANK10  BANK1
      +1  BANK12  BANK13  BANK14  BANK15
  7806 ;;      Params:         0       0       0       0       0       0       0       0       0       0       0       0       
      +0       0       0       0       0
  7807 ;;      Locals:         3       0       0       0       0       0       0       0       0       0       0       0       
      +0       0       0       0       0
  7808 ;;      Temps:          0       0       0       0       0       0       0       0       0       0       0       0       
      +0       0       0       0       0
  7809 ;;      Totals:         3       0       0       0       0       0       0       0       0       0       0       0       
      +0       0       0       0       0
  7810 ;;Total ram usage:        3 bytes
  7811 ;; Hardware stack levels used:    1
  7812 ;; Hardware stack levels required when called:    3
  7813 ;; This function calls:
  7814 ;;		_CoolMode
  7815 ;;		_HeatMode
  7816 ;;		___ftadd
  7817 ;;		___ftge
  7818 ;;		___ftneg
  7819 ;;		___lbtoft
  7820 ;; This function is called by:
  7821 ;;		_main
  7822 ;; This function uses a non-reentrant model
  7823 ;;
  7824                           
  7825                           	psect	text33
  7826  002D72                     __ptext33:
  7827                           	opt stack 0
  7828  002D72                     _AutoCoolMode:
  7829                           	opt stack 27
  7830                           
  7831                           ;Hw2.c: 328: float coolError = T - SP;
  7832                           
  7833                           ;incstack = 0
  7834  002D72  C05B  F01F         	movff	_SP,___ftneg@f1
  7835  002D76  C05C  F020         	movff	_SP+1,___ftneg@f1+1
  7836  002D7A  C05D  F021         	movff	_SP+2,___ftneg@f1+2
  7837  002D7E  ECC0  F01A         	call	___ftneg	;wreg free
  7838  002D82  C01F  F040         	movff	?___ftneg,___ftadd@f1
  7839  002D86  C020  F041         	movff	?___ftneg+1,___ftadd@f1+1
  7840  002D8A  C021  F042         	movff	?___ftneg+2,___ftadd@f1+2
  7841  002D8E  C058  F043         	movff	_T,___ftadd@f2
  7842  002D92  C059  F044         	movff	_T+1,___ftadd@f2+1
  7843  002D96  C05A  F045         	movff	_T+2,___ftadd@f2+2
  7844  002D9A  EC40  F012         	call	___ftadd	;wreg free
  7845  002D9E  C040  F055         	movff	?___ftadd,AutoCoolMode@coolError
  7846  002DA2  C041  F056         	movff	?___ftadd+1,AutoCoolMode@coolError+1
  7847  002DA6  C042  F057         	movff	?___ftadd+2,AutoCoolMode@coolError+2
  7848                           
  7849                           ;Hw2.c: 330: if (coolError > 0.0)
  7850  002DAA  0E00               	movlw	0
  7851  002DAC  6E4C               	movwf	___ftge@ff1,c
  7852  002DAE  0E00               	movlw	0
  7853  002DB0  6E4D               	movwf	___ftge@ff1+1,c
  7854  002DB2  0E00               	movlw	0
  7855  002DB4  6E4E               	movwf	___ftge@ff1+2,c
  7856  002DB6  C055  F04F         	movff	AutoCoolMode@coolError,___ftge@ff2
  7857  002DBA  C056  F050         	movff	AutoCoolMode@coolError+1,___ftge@ff2+1
  7858  002DBE  C057  F051         	movff	AutoCoolMode@coolError+2,___ftge@ff2+2
  7859  002DC2  EC72  F017         	call	___ftge	;wreg free
  7860  002DC6  B0D8               	btfsc	status,0,c
  7861  002DC8  D003               	goto	l189
  7862                           
  7863                           ;Hw2.c: 331: {
  7864                           ;Hw2.c: 332: CoolMode();
  7865  002DCA  EC89  F01A         	call	_CoolMode	;wreg free
  7866                           
  7867                           ;Hw2.c: 333: }
  7868  002DCE  0012               	return	
  7869  002DD0                     l189:
  7870                           
  7871                           ;Hw2.c: 334: else if (T < (SP - Hs))
  7872  002DD0  C058  F04C         	movff	_T,___ftge@ff1
  7873  002DD4  C059  F04D         	movff	_T+1,___ftge@ff1+1
  7874  002DD8  C05A  F04E         	movff	_T+2,___ftge@ff1+2
  7875  002DDC  C05B  F043         	movff	_SP,___ftadd@f2
  7876  002DE0  C05C  F044         	movff	_SP+1,___ftadd@f2+1
  7877  002DE4  C05D  F045         	movff	_SP+2,___ftadd@f2+2
  7878  002DE8  5069               	movf	_Hs,w,c	;volatile
  7879  002DEA  ECAE  F01A         	call	___lbtoft
  7880  002DEE  C01B  F01F         	movff	?___lbtoft,___ftneg@f1
  7881  002DF2  C01C  F020         	movff	?___lbtoft+1,___ftneg@f1+1
  7882  002DF6  C01D  F021         	movff	?___lbtoft+2,___ftneg@f1+2
  7883  002DFA  ECC0  F01A         	call	___ftneg	;wreg free
  7884  002DFE  C01F  F040         	movff	?___ftneg,___ftadd@f1
  7885  002E02  C020  F041         	movff	?___ftneg+1,___ftadd@f1+1
  7886  002E06  C021  F042         	movff	?___ftneg+2,___ftadd@f1+2
  7887  002E0A  EC40  F012         	call	___ftadd	;wreg free
  7888  002E0E  C040  F04F         	movff	?___ftadd,___ftge@ff2
  7889  002E12  C041  F050         	movff	?___ftadd+1,___ftge@ff2+1
  7890  002E16  C042  F051         	movff	?___ftadd+2,___ftge@ff2+2
  7891  002E1A  EC72  F017         	call	___ftge	;wreg free
  7892  002E1E  B0D8               	btfsc	status,0,c
  7893  002E20  D003               	goto	l191
  7894                           
  7895                           ;Hw2.c: 335: {
  7896                           ;Hw2.c: 336: HeatMode();
  7897  002E22  EC02  F01A         	call	_HeatMode	;wreg free
  7898                           
  7899                           ;Hw2.c: 337: }
  7900  002E26  0012               	return	
  7901  002E28                     l191:
  7902                           
  7903                           ;Hw2.c: 338: else
  7904                           ;Hw2.c: 339: {
  7905                           ;Hw2.c: 341: PORTCbits.RC5 = 0;
  7906  002E28  9A82               	bcf	3970,5,c	;volatile
  7907                           
  7908                           ;Hw2.c: 342: PORTCbits.RC2 = 0;
  7909  002E2A  9482               	bcf	3970,2,c	;volatile
  7910                           
  7911                           ;Hw2.c: 344: CCP1CON = 0x00;
  7912  002E2C  0E00               	movlw	0
  7913  002E2E  6EBD               	movwf	4029,c	;volatile
  7914                           
  7915                           ;Hw2.c: 345: PIE1bits.TMR1IE = 0;
  7916  002E30  909D               	bcf	3997,0,c	;volatile
  7917                           
  7918                           ;Hw2.c: 346: PIE2bits.CCP2IE = 0;
  7919  002E32  90A0               	bcf	4000,0,c	;volatile
  7920  002E34  0012               	return	
  7921  002E36                     __end_of_AutoCoolMode:
  7922                           	opt stack 0
  7923                           tblptru	equ	0xFF8
  7924                           tblptrh	equ	0xFF7
  7925                           tblptrl	equ	0xFF6
  7926                           tablat	equ	0xFF5
  7927                           prodh	equ	0xFF4
  7928                           prodl	equ	0xFF3
  7929                           intcon	equ	0xFF2
  7930                           intcon2	equ	0xFF1
  7931                           intcon3	equ	0xFF0
  7932                           indf0	equ	0xFEF
  7933                           postinc0	equ	0xFEE
  7934                           fsr0h	equ	0xFEA
  7935                           fsr0l	equ	0xFE9
  7936                           wreg	equ	0xFE8
  7937                           indf1	equ	0xFE7
  7938                           postdec1	equ	0xFE5
  7939                           fsr1h	equ	0xFE2
  7940                           fsr1l	equ	0xFE1
  7941                           indf2	equ	0xFDF
  7942                           postinc2	equ	0xFDE
  7943                           postdec2	equ	0xFDD
  7944                           fsr2h	equ	0xFDA
  7945                           fsr2l	equ	0xFD9
  7946                           status	equ	0xFD8
  7947                           
  7948 ;; *************** function ___lbtoft *****************
  7949 ;; Defined at:
  7950 ;;		line 27 in file "C:\Program Files (x86)\Microchip\xc8\v1.45\sources\common\lbtoft.c"
  7951 ;; Parameters:    Size  Location     Type
  7952 ;;  c               1    wreg     unsigned char 
  7953 ;; Auto vars:     Size  Location     Type
  7954 ;;  c               1   29[COMRAM] unsigned char 
  7955 ;; Return value:  Size  Location     Type
  7956 ;;                  3   26[COMRAM] float 
  7957 ;; Registers used:
  7958 ;;		wreg, status,2, status,0, cstack
  7959 ;; Tracked objects:
  7960 ;;		On entry : 0/0
  7961 ;;		On exit  : 0/0
  7962 ;;		Unchanged: 0/0
  7963 ;; Data sizes:     COMRAM   BANK0   BANK1   BANK2   BANK3   BANK4   BANK5   BANK6   BANK7   BANK8   BANK9  BANK10  BANK1
      +1  BANK12  BANK13  BANK14  BANK15
  7964 ;;      Params:         3       0       0       0       0       0       0       0       0       0       0       0       
      +0       0       0       0       0
  7965 ;;      Locals:         1       0       0       0       0       0       0       0       0       0       0       0       
      +0       0       0       0       0
  7966 ;;      Temps:          0       0       0       0       0       0       0       0       0       0       0       0       
      +0       0       0       0       0
  7967 ;;      Totals:         4       0       0       0       0       0       0       0       0       0       0       0       
      +0       0       0       0       0
  7968 ;;Total ram usage:        4 bytes
  7969 ;; Hardware stack levels used:    1
  7970 ;; Hardware stack levels required when called:    2
  7971 ;; This function calls:
  7972 ;;		___ftpack
  7973 ;; This function is called by:
  7974 ;;		_AutoCoolMode
  7975 ;; This function uses a non-reentrant model
  7976 ;;
  7977                           
  7978                           	psect	text34
  7979  00355C                     __ptext34:
  7980                           	opt stack 0
  7981  00355C                     ___lbtoft:
  7982                           	opt stack 27
  7983                           
  7984                           ;incstack = 0
  7985                           ;___lbtoft@c stored from wreg
  7986  00355C  6E1E               	movwf	___lbtoft@c,c
  7987  00355E  501E               	movf	___lbtoft@c,w,c
  7988  003560  6E13               	movwf	___ftpack@arg,c
  7989  003562  6A14               	clrf	___ftpack@arg+1,c
  7990  003564  6A15               	clrf	___ftpack@arg+2,c
  7991  003566  0E8E               	movlw	142
  7992  003568  6E16               	movwf	___ftpack@exp,c
  7993  00356A  0E00               	movlw	0
  7994  00356C  6E17               	movwf	___ftpack@sign,c
  7995  00356E  EC1B  F017         	call	___ftpack	;wreg free
  7996  003572  C013  F01B         	movff	?___ftpack,?___lbtoft
  7997  003576  C014  F01C         	movff	?___ftpack+1,?___lbtoft+1
  7998  00357A  C015  F01D         	movff	?___ftpack+2,?___lbtoft+2
  7999  00357E  0012               	return	
  8000  003580                     __end_of___lbtoft:
  8001                           	opt stack 0
  8002                           tblptru	equ	0xFF8
  8003                           tblptrh	equ	0xFF7
  8004                           tblptrl	equ	0xFF6
  8005                           tablat	equ	0xFF5
  8006                           prodh	equ	0xFF4
  8007                           prodl	equ	0xFF3
  8008                           intcon	equ	0xFF2
  8009                           intcon2	equ	0xFF1
  8010                           intcon3	equ	0xFF0
  8011                           indf0	equ	0xFEF
  8012                           postinc0	equ	0xFEE
  8013                           fsr0h	equ	0xFEA
  8014                           fsr0l	equ	0xFE9
  8015                           wreg	equ	0xFE8
  8016                           indf1	equ	0xFE7
  8017                           postdec1	equ	0xFE5
  8018                           fsr1h	equ	0xFE2
  8019                           fsr1l	equ	0xFE1
  8020                           indf2	equ	0xFDF
  8021                           postinc2	equ	0xFDE
  8022                           postdec2	equ	0xFDD
  8023                           fsr2h	equ	0xFDA
  8024                           fsr2l	equ	0xFD9
  8025                           status	equ	0xFD8
  8026                           
  8027 ;; *************** function ___ftneg *****************
  8028 ;; Defined at:
  8029 ;;		line 15 in file "C:\Program Files (x86)\Microchip\xc8\v1.45\sources\common\ftneg.c"
  8030 ;; Parameters:    Size  Location     Type
  8031 ;;  f1              3   30[COMRAM] float 
  8032 ;; Auto vars:     Size  Location     Type
  8033 ;;		None
  8034 ;; Return value:  Size  Location     Type
  8035 ;;                  3   30[COMRAM] float 
  8036 ;; Registers used:
  8037 ;;		wreg, status,2, status,0
  8038 ;; Tracked objects:
  8039 ;;		On entry : 0/0
  8040 ;;		On exit  : 0/0
  8041 ;;		Unchanged: 0/0
  8042 ;; Data sizes:     COMRAM   BANK0   BANK1   BANK2   BANK3   BANK4   BANK5   BANK6   BANK7   BANK8   BANK9  BANK10  BANK1
      +1  BANK12  BANK13  BANK14  BANK15
  8043 ;;      Params:         3       0       0       0       0       0       0       0       0       0       0       0       
      +0       0       0       0       0
  8044 ;;      Locals:         0       0       0       0       0       0       0       0       0       0       0       0       
      +0       0       0       0       0
  8045 ;;      Temps:          0       0       0       0       0       0       0       0       0       0       0       0       
      +0       0       0       0       0
  8046 ;;      Totals:         3       0       0       0       0       0       0       0       0       0       0       0       
      +0       0       0       0       0
  8047 ;;Total ram usage:        3 bytes
  8048 ;; Hardware stack levels used:    1
  8049 ;; Hardware stack levels required when called:    1
  8050 ;; This function calls:
  8051 ;;		Nothing
  8052 ;; This function is called by:
  8053 ;;		_AutoCoolMode
  8054 ;;		_sprintf
  8055 ;;		_set_pwm1_general
  8056 ;; This function uses a non-reentrant model
  8057 ;;
  8058                           
  8059                           	psect	text35
  8060  003580                     __ptext35:
  8061                           	opt stack 0
  8062  003580                     ___ftneg:
  8063                           	opt stack 27
  8064                           
  8065                           ;incstack = 0
  8066  003580  501F               	movf	___ftneg@f1,w,c
  8067  003582  1020               	iorwf	___ftneg@f1+1,w,c
  8068  003584  1021               	iorwf	___ftneg@f1+2,w,c
  8069  003586  B4D8               	btfsc	status,2,c
  8070  003588  D006               	goto	l798
  8071  00358A  0E00               	movlw	0
  8072  00358C  1A1F               	xorwf	___ftneg@f1,f,c
  8073  00358E  0E00               	movlw	0
  8074  003590  1A20               	xorwf	___ftneg@f1+1,f,c
  8075  003592  0E80               	movlw	128
  8076  003594  1A21               	xorwf	___ftneg@f1+2,f,c
  8077  003596                     l798:
  8078  003596  C01F  F01F         	movff	___ftneg@f1,?___ftneg
  8079  00359A  C020  F020         	movff	___ftneg@f1+1,?___ftneg+1
  8080  00359E  C021  F021         	movff	___ftneg@f1+2,?___ftneg+2
  8081  0035A2  0012               	return		;funcret
  8082  0035A4                     __end_of___ftneg:
  8083                           	opt stack 0
  8084                           tblptru	equ	0xFF8
  8085                           tblptrh	equ	0xFF7
  8086                           tblptrl	equ	0xFF6
  8087                           tablat	equ	0xFF5
  8088                           prodh	equ	0xFF4
  8089                           prodl	equ	0xFF3
  8090                           intcon	equ	0xFF2
  8091                           intcon2	equ	0xFF1
  8092                           intcon3	equ	0xFF0
  8093                           indf0	equ	0xFEF
  8094                           postinc0	equ	0xFEE
  8095                           fsr0h	equ	0xFEA
  8096                           fsr0l	equ	0xFE9
  8097                           wreg	equ	0xFE8
  8098                           indf1	equ	0xFE7
  8099                           postdec1	equ	0xFE5
  8100                           fsr1h	equ	0xFE2
  8101                           fsr1l	equ	0xFE1
  8102                           indf2	equ	0xFDF
  8103                           postinc2	equ	0xFDE
  8104                           postdec2	equ	0xFDD
  8105                           fsr2h	equ	0xFDA
  8106                           fsr2l	equ	0xFD9
  8107                           status	equ	0xFD8
  8108                           
  8109 ;; *************** function ___ftge *****************
  8110 ;; Defined at:
  8111 ;;		line 4 in file "C:\Program Files (x86)\Microchip\xc8\v1.45\sources\common\ftge.c"
  8112 ;; Parameters:    Size  Location     Type
  8113 ;;  ff1             3   75[COMRAM] float 
  8114 ;;  ff2             3   78[COMRAM] float 
  8115 ;; Auto vars:     Size  Location     Type
  8116 ;;		None
  8117 ;; Return value:  Size  Location     Type
  8118 ;;		None               void
  8119 ;; Registers used:
  8120 ;;		wreg, status,2, status,0
  8121 ;; Tracked objects:
  8122 ;;		On entry : 0/0
  8123 ;;		On exit  : 0/0
  8124 ;;		Unchanged: 0/0
  8125 ;; Data sizes:     COMRAM   BANK0   BANK1   BANK2   BANK3   BANK4   BANK5   BANK6   BANK7   BANK8   BANK9  BANK10  BANK1
      +1  BANK12  BANK13  BANK14  BANK15
  8126 ;;      Params:         6       0       0       0       0       0       0       0       0       0       0       0       
      +0       0       0       0       0
  8127 ;;      Locals:         0       0       0       0       0       0       0       0       0       0       0       0       
      +0       0       0       0       0
  8128 ;;      Temps:          3       0       0       0       0       0       0       0       0       0       0       0       
      +0       0       0       0       0
  8129 ;;      Totals:         9       0       0       0       0       0       0       0       0       0       0       0       
      +0       0       0       0       0
  8130 ;;Total ram usage:        9 bytes
  8131 ;; Hardware stack levels used:    1
  8132 ;; Hardware stack levels required when called:    1
  8133 ;; This function calls:
  8134 ;;		Nothing
  8135 ;; This function is called by:
  8136 ;;		_AutoCoolMode
  8137 ;;		_sprintf
  8138 ;; This function uses a non-reentrant model
  8139 ;;
  8140                           
  8141                           	psect	text36
  8142  002EE4                     __ptext36:
  8143                           	opt stack 0
  8144  002EE4                     ___ftge:
  8145                           	opt stack 27
  8146                           
  8147                           ;incstack = 0
  8148  002EE4  AE4E               	btfss	___ftge@ff1+2,7,c
  8149  002EE6  D016               	goto	l780
  8150  002EE8  C04C  F052         	movff	___ftge@ff1,??___ftge
  8151  002EEC  C04D  F053         	movff	___ftge@ff1+1,??___ftge+1
  8152  002EF0  C04E  F054         	movff	___ftge@ff1+2,??___ftge+2
  8153  002EF4  1E52               	comf	??___ftge,f,c
  8154  002EF6  1E53               	comf	??___ftge+1,f,c
  8155  002EF8  1E54               	comf	??___ftge+2,f,c
  8156  002EFA  2A52               	incf	??___ftge,f,c
  8157  002EFC  0E00               	movlw	0
  8158  002EFE  2253               	addwfc	??___ftge+1,f,c
  8159  002F00  2254               	addwfc	??___ftge+2,f,c
  8160  002F02  0E00               	movlw	0
  8161  002F04  2452               	addwf	??___ftge,w,c
  8162  002F06  6E4C               	movwf	___ftge@ff1,c
  8163  002F08  0E00               	movlw	0
  8164  002F0A  2053               	addwfc	??___ftge+1,w,c
  8165  002F0C  6E4D               	movwf	___ftge@ff1+1,c
  8166  002F0E  0E80               	movlw	128
  8167  002F10  2054               	addwfc	??___ftge+2,w,c
  8168  002F12  6E4E               	movwf	___ftge@ff1+2,c
  8169  002F14                     l780:
  8170  002F14  AE51               	btfss	___ftge@ff2+2,7,c
  8171  002F16  D016               	goto	l781
  8172  002F18  C04F  F052         	movff	___ftge@ff2,??___ftge
  8173  002F1C  C050  F053         	movff	___ftge@ff2+1,??___ftge+1
  8174  002F20  C051  F054         	movff	___ftge@ff2+2,??___ftge+2
  8175  002F24  1E52               	comf	??___ftge,f,c
  8176  002F26  1E53               	comf	??___ftge+1,f,c
  8177  002F28  1E54               	comf	??___ftge+2,f,c
  8178  002F2A  2A52               	incf	??___ftge,f,c
  8179  002F2C  0E00               	movlw	0
  8180  002F2E  2253               	addwfc	??___ftge+1,f,c
  8181  002F30  2254               	addwfc	??___ftge+2,f,c
  8182  002F32  0E00               	movlw	0
  8183  002F34  2452               	addwf	??___ftge,w,c
  8184  002F36  6E4F               	movwf	___ftge@ff2,c
  8185  002F38  0E00               	movlw	0
  8186  002F3A  2053               	addwfc	??___ftge+1,w,c
  8187  002F3C  6E50               	movwf	___ftge@ff2+1,c
  8188  002F3E  0E80               	movlw	128
  8189  002F40  2054               	addwfc	??___ftge+2,w,c
  8190  002F42  6E51               	movwf	___ftge@ff2+2,c
  8191  002F44                     l781:
  8192  002F44  0E00               	movlw	0
  8193  002F46  1A4C               	xorwf	___ftge@ff1,f,c
  8194  002F48  0E00               	movlw	0
  8195  002F4A  1A4D               	xorwf	___ftge@ff1+1,f,c
  8196  002F4C  0E80               	movlw	128
  8197  002F4E  1A4E               	xorwf	___ftge@ff1+2,f,c
  8198  002F50  0E00               	movlw	0
  8199  002F52  1A4F               	xorwf	___ftge@ff2,f,c
  8200  002F54  0E00               	movlw	0
  8201  002F56  1A50               	xorwf	___ftge@ff2+1,f,c
  8202  002F58  0E80               	movlw	128
  8203  002F5A  1A51               	xorwf	___ftge@ff2+2,f,c
  8204  002F5C  504F               	movf	___ftge@ff2,w,c
  8205  002F5E  5C4C               	subwf	___ftge@ff1,w,c
  8206  002F60  5050               	movf	___ftge@ff2+1,w,c
  8207  002F62  584D               	subwfb	___ftge@ff1+1,w,c
  8208  002F64  5051               	movf	___ftge@ff2+2,w,c
  8209  002F66  584E               	subwfb	___ftge@ff1+2,w,c
  8210  002F68  B0D8               	btfsc	status,0,c
  8211  002F6A  D002               	goto	l3774
  8212  002F6C  90D8               	bcf	status,0,c
  8213  002F6E  0012               	return	
  8214  002F70                     l3774:
  8215  002F70  80D8               	bsf	status,0,c
  8216  002F72  0012               	return	
  8217  002F74                     __end_of___ftge:
  8218                           	opt stack 0
  8219                           tblptru	equ	0xFF8
  8220                           tblptrh	equ	0xFF7
  8221                           tblptrl	equ	0xFF6
  8222                           tablat	equ	0xFF5
  8223                           prodh	equ	0xFF4
  8224                           prodl	equ	0xFF3
  8225                           intcon	equ	0xFF2
  8226                           intcon2	equ	0xFF1
  8227                           intcon3	equ	0xFF0
  8228                           indf0	equ	0xFEF
  8229                           postinc0	equ	0xFEE
  8230                           fsr0h	equ	0xFEA
  8231                           fsr0l	equ	0xFE9
  8232                           wreg	equ	0xFE8
  8233                           indf1	equ	0xFE7
  8234                           postdec1	equ	0xFE5
  8235                           fsr1h	equ	0xFE2
  8236                           fsr1l	equ	0xFE1
  8237                           indf2	equ	0xFDF
  8238                           postinc2	equ	0xFDE
  8239                           postdec2	equ	0xFDD
  8240                           fsr2h	equ	0xFDA
  8241                           fsr2l	equ	0xFD9
  8242                           status	equ	0xFD8
  8243                           
  8244 ;; *************** function ___ftadd *****************
  8245 ;; Defined at:
  8246 ;;		line 86 in file "C:\Program Files (x86)\Microchip\xc8\v1.45\sources\common\ftadd.c"
  8247 ;; Parameters:    Size  Location     Type
  8248 ;;  f1              3   63[COMRAM] float 
  8249 ;;  f2              3   66[COMRAM] float 
  8250 ;; Auto vars:     Size  Location     Type
  8251 ;;  exp1            1   74[COMRAM] unsigned char 
  8252 ;;  exp2            1   73[COMRAM] unsigned char 
  8253 ;;  sign            1   72[COMRAM] unsigned char 
  8254 ;; Return value:  Size  Location     Type
  8255 ;;                  3   63[COMRAM] float 
  8256 ;; Registers used:
  8257 ;;		wreg, status,2, status,0, cstack
  8258 ;; Tracked objects:
  8259 ;;		On entry : 0/0
  8260 ;;		On exit  : 0/0
  8261 ;;		Unchanged: 0/0
  8262 ;; Data sizes:     COMRAM   BANK0   BANK1   BANK2   BANK3   BANK4   BANK5   BANK6   BANK7   BANK8   BANK9  BANK10  BANK1
      +1  BANK12  BANK13  BANK14  BANK15
  8263 ;;      Params:         6       0       0       0       0       0       0       0       0       0       0       0       
      +0       0       0       0       0
  8264 ;;      Locals:         3       0       0       0       0       0       0       0       0       0       0       0       
      +0       0       0       0       0
  8265 ;;      Temps:          3       0       0       0       0       0       0       0       0       0       0       0       
      +0       0       0       0       0
  8266 ;;      Totals:        12       0       0       0       0       0       0       0       0       0       0       0       
      +0       0       0       0       0
  8267 ;;Total ram usage:       12 bytes
  8268 ;; Hardware stack levels used:    1
  8269 ;; Hardware stack levels required when called:    2
  8270 ;; This function calls:
  8271 ;;		___ftpack
  8272 ;; This function is called by:
  8273 ;;		_AutoCoolMode
  8274 ;;		_sprintf
  8275 ;;		___ftsub
  8276 ;;		_set_pwm1_percent
  8277 ;;		_set_pwm1_voltage
  8278 ;;		_set_pwm1_general
  8279 ;; This function uses a non-reentrant model
  8280 ;;
  8281                           
  8282                           	psect	text37
  8283  002480                     __ptext37:
  8284                           	opt stack 0
  8285  002480                     ___ftadd:
  8286                           	opt stack 25
  8287                           
  8288                           ;incstack = 0
  8289  002480  C042  F046         	movff	___ftadd@f1+2,??___ftadd
  8290  002484  6A47               	clrf	(??___ftadd+1)& (0+255),c
  8291  002486  6A48               	clrf	(??___ftadd+2)& (0+255),c
  8292  002488  3441               	rlcf	___ftadd@f1+1,w,c
  8293  00248A  3646               	rlcf	??___ftadd& (0+255),f,c
  8294  00248C  E301               	bnc	u3801
  8295  00248E  8047               	bsf	(??___ftadd+1)& (0+255),0,c
  8296  002490                     u3801:
  8297  002490  5046               	movf	??___ftadd,w,c
  8298  002492  6E4B               	movwf	___ftadd@exp1,c
  8299  002494  C045  F046         	movff	___ftadd@f2+2,??___ftadd
  8300  002498  6A47               	clrf	(??___ftadd+1)& (0+255),c
  8301  00249A  6A48               	clrf	(??___ftadd+2)& (0+255),c
  8302  00249C  3444               	rlcf	___ftadd@f2+1,w,c
  8303  00249E  3646               	rlcf	??___ftadd& (0+255),f,c
  8304  0024A0  E301               	bnc	u3811
  8305  0024A2  8047               	bsf	(??___ftadd+1)& (0+255),0,c
  8306  0024A4                     u3811:
  8307  0024A4  5046               	movf	??___ftadd,w,c
  8308  0024A6  6E4A               	movwf	___ftadd@exp2,c
  8309  0024A8  504B               	movf	___ftadd@exp1,w,c
  8310  0024AA  B4D8               	btfsc	status,2,c
  8311  0024AC  D00B               	goto	u3840
  8312  0024AE  504A               	movf	___ftadd@exp2,w,c
  8313  0024B0  5C4B               	subwf	___ftadd@exp1,w,c
  8314  0024B2  B0D8               	btfsc	status,0,c
  8315  0024B4  D00E               	goto	l722
  8316  0024B6  504B               	movf	___ftadd@exp1,w,c
  8317  0024B8  0800               	sublw	0
  8318  0024BA  244A               	addwf	___ftadd@exp2,w,c
  8319  0024BC  6E46               	movwf	??___ftadd& (0+255),c
  8320  0024BE  0E18               	movlw	24
  8321  0024C0  6446               	cpfsgt	??___ftadd,c
  8322  0024C2  D007               	goto	l722
  8323  0024C4                     u3840:
  8324  0024C4  C043  F040         	movff	___ftadd@f2,?___ftadd
  8325  0024C8  C044  F041         	movff	___ftadd@f2+1,?___ftadd+1
  8326  0024CC  C045  F042         	movff	___ftadd@f2+2,?___ftadd+2
  8327  0024D0  0012               	return	
  8328  0024D2                     l722:
  8329  0024D2  504A               	movf	___ftadd@exp2,w,c
  8330  0024D4  B4D8               	btfsc	status,2,c
  8331  0024D6  D00B               	goto	u3870
  8332  0024D8  504B               	movf	___ftadd@exp1,w,c
  8333  0024DA  5C4A               	subwf	___ftadd@exp2,w,c
  8334  0024DC  B0D8               	btfsc	status,0,c
  8335  0024DE  D00E               	goto	l726
  8336  0024E0  504A               	movf	___ftadd@exp2,w,c
  8337  0024E2  0800               	sublw	0
  8338  0024E4  244B               	addwf	___ftadd@exp1,w,c
  8339  0024E6  6E46               	movwf	??___ftadd& (0+255),c
  8340  0024E8  0E18               	movlw	24
  8341  0024EA  6446               	cpfsgt	??___ftadd,c
  8342  0024EC  D007               	goto	l726
  8343  0024EE                     u3870:
  8344  0024EE  C040  F040         	movff	___ftadd@f1,?___ftadd
  8345  0024F2  C041  F041         	movff	___ftadd@f1+1,?___ftadd+1
  8346  0024F6  C042  F042         	movff	___ftadd@f1+2,?___ftadd+2
  8347  0024FA  0012               	return	
  8348  0024FC                     l726:
  8349  0024FC  0E06               	movlw	6
  8350  0024FE  6E49               	movwf	___ftadd@sign,c
  8351  002500  BE42               	btfsc	___ftadd@f1+2,7,c
  8352  002502  8E49               	bsf	___ftadd@sign,7,c
  8353  002504  BE45               	btfsc	___ftadd@f2+2,7,c
  8354  002506  8C49               	bsf	___ftadd@sign,6,c
  8355  002508  8E41               	bsf	___ftadd@f1+1,7,c
  8356  00250A  0EFF               	movlw	255
  8357  00250C  1640               	andwf	___ftadd@f1,f,c
  8358  00250E  0EFF               	movlw	255
  8359  002510  1641               	andwf	___ftadd@f1+1,f,c
  8360  002512  0E00               	movlw	0
  8361  002514  1642               	andwf	___ftadd@f1+2,f,c
  8362  002516  8E44               	bsf	___ftadd@f2+1,7,c
  8363  002518  0EFF               	movlw	255
  8364  00251A  1643               	andwf	___ftadd@f2,f,c
  8365  00251C  0EFF               	movlw	255
  8366  00251E  1644               	andwf	___ftadd@f2+1,f,c
  8367  002520  0E00               	movlw	0
  8368  002522  1645               	andwf	___ftadd@f2+2,f,c
  8369  002524  504A               	movf	___ftadd@exp2,w,c
  8370  002526  5C4B               	subwf	___ftadd@exp1,w,c
  8371  002528  B0D8               	btfsc	status,0,c
  8372  00252A  D01B               	goto	l731
  8373  00252C                     u3900:
  8374  00252C  90D8               	bcf	status,0,c
  8375  00252E  3643               	rlcf	___ftadd@f2,f,c
  8376  002530  3644               	rlcf	___ftadd@f2+1,f,c
  8377  002532  3645               	rlcf	___ftadd@f2+2,f,c
  8378  002534  064A               	decf	___ftadd@exp2,f,c
  8379  002536  504B               	movf	___ftadd@exp1,w,c
  8380  002538  184A               	xorwf	___ftadd@exp2,w,c
  8381  00253A  B4D8               	btfsc	status,2,c
  8382  00253C  D00D               	goto	l736
  8383  00253E  0649               	decf	___ftadd@sign,f,c
  8384  002540  C049  F046         	movff	___ftadd@sign,??___ftadd
  8385  002544  0E07               	movlw	7
  8386  002546  1646               	andwf	??___ftadd,f,c
  8387  002548  B4D8               	btfsc	status,2,c
  8388  00254A  D006               	goto	l736
  8389  00254C  D7EF               	goto	u3900
  8390  00254E  90D8               	bcf	status,0,c
  8391  002550  3242               	rrcf	___ftadd@f1+2,f,c
  8392  002552  3241               	rrcf	___ftadd@f1+1,f,c
  8393  002554  3240               	rrcf	___ftadd@f1,f,c
  8394  002556  2A4B               	incf	___ftadd@exp1,f,c
  8395  002558                     l736:
  8396  002558  504A               	movf	___ftadd@exp2,w,c
  8397  00255A  184B               	xorwf	___ftadd@exp1,w,c
  8398  00255C  B4D8               	btfsc	status,2,c
  8399  00255E  D01F               	goto	u3970
  8400  002560  D7F6               	goto	l737
  8401  002562                     l731:
  8402  002562  504B               	movf	___ftadd@exp1,w,c
  8403  002564  5C4A               	subwf	___ftadd@exp2,w,c
  8404  002566  B0D8               	btfsc	status,0,c
  8405  002568  D01A               	goto	u3970
  8406  00256A                     u3940:
  8407  00256A  90D8               	bcf	status,0,c
  8408  00256C  3640               	rlcf	___ftadd@f1,f,c
  8409  00256E  3641               	rlcf	___ftadd@f1+1,f,c
  8410  002570  3642               	rlcf	___ftadd@f1+2,f,c
  8411  002572  064B               	decf	___ftadd@exp1,f,c
  8412  002574  504B               	movf	___ftadd@exp1,w,c
  8413  002576  184A               	xorwf	___ftadd@exp2,w,c
  8414  002578  B4D8               	btfsc	status,2,c
  8415  00257A  D00D               	goto	l745
  8416  00257C  0649               	decf	___ftadd@sign,f,c
  8417  00257E  C049  F046         	movff	___ftadd@sign,??___ftadd
  8418  002582  0E07               	movlw	7
  8419  002584  1646               	andwf	??___ftadd,f,c
  8420  002586  B4D8               	btfsc	status,2,c
  8421  002588  D006               	goto	l745
  8422  00258A  D7EF               	goto	u3940
  8423  00258C  90D8               	bcf	status,0,c
  8424  00258E  3245               	rrcf	___ftadd@f2+2,f,c
  8425  002590  3244               	rrcf	___ftadd@f2+1,f,c
  8426  002592  3243               	rrcf	___ftadd@f2,f,c
  8427  002594  2A4A               	incf	___ftadd@exp2,f,c
  8428  002596                     l745:
  8429  002596  504A               	movf	___ftadd@exp2,w,c
  8430  002598  184B               	xorwf	___ftadd@exp1,w,c
  8431  00259A  A4D8               	btfss	status,2,c
  8432  00259C  D7F7               	goto	l746
  8433  00259E                     u3970:
  8434  00259E  AE49               	btfss	___ftadd@sign,7,c
  8435  0025A0  D00C               	goto	l748
  8436  0025A2  0EFF               	movlw	255
  8437  0025A4  1A40               	xorwf	___ftadd@f1,f,c
  8438  0025A6  0EFF               	movlw	255
  8439  0025A8  1A41               	xorwf	___ftadd@f1+1,f,c
  8440  0025AA  0EFF               	movlw	255
  8441  0025AC  1A42               	xorwf	___ftadd@f1+2,f,c
  8442  0025AE  0E01               	movlw	1
  8443  0025B0  2640               	addwf	___ftadd@f1,f,c
  8444  0025B2  0E00               	movlw	0
  8445  0025B4  2241               	addwfc	___ftadd@f1+1,f,c
  8446  0025B6  0E00               	movlw	0
  8447  0025B8  2242               	addwfc	___ftadd@f1+2,f,c
  8448  0025BA                     l748:
  8449  0025BA  AC49               	btfss	___ftadd@sign,6,c
  8450  0025BC  D00C               	goto	l749
  8451  0025BE  0EFF               	movlw	255
  8452  0025C0  1A43               	xorwf	___ftadd@f2,f,c
  8453  0025C2  0EFF               	movlw	255
  8454  0025C4  1A44               	xorwf	___ftadd@f2+1,f,c
  8455  0025C6  0EFF               	movlw	255
  8456  0025C8  1A45               	xorwf	___ftadd@f2+2,f,c
  8457  0025CA  0E01               	movlw	1
  8458  0025CC  2643               	addwf	___ftadd@f2,f,c
  8459  0025CE  0E00               	movlw	0
  8460  0025D0  2244               	addwfc	___ftadd@f2+1,f,c
  8461  0025D2  0E00               	movlw	0
  8462  0025D4  2245               	addwfc	___ftadd@f2+2,f,c
  8463  0025D6                     l749:
  8464  0025D6  0E00               	movlw	0
  8465  0025D8  6E49               	movwf	___ftadd@sign,c
  8466  0025DA  5040               	movf	___ftadd@f1,w,c
  8467  0025DC  2643               	addwf	___ftadd@f2,f,c
  8468  0025DE  5041               	movf	___ftadd@f1+1,w,c
  8469  0025E0  2244               	addwfc	___ftadd@f2+1,f,c
  8470  0025E2  5042               	movf	___ftadd@f1+2,w,c
  8471  0025E4  2245               	addwfc	___ftadd@f2+2,f,c
  8472  0025E6  AE45               	btfss	___ftadd@f2+2,7,c
  8473  0025E8  D00E               	goto	l750
  8474  0025EA  0EFF               	movlw	255
  8475  0025EC  1A43               	xorwf	___ftadd@f2,f,c
  8476  0025EE  0EFF               	movlw	255
  8477  0025F0  1A44               	xorwf	___ftadd@f2+1,f,c
  8478  0025F2  0EFF               	movlw	255
  8479  0025F4  1A45               	xorwf	___ftadd@f2+2,f,c
  8480  0025F6  0E01               	movlw	1
  8481  0025F8  2643               	addwf	___ftadd@f2,f,c
  8482  0025FA  0E00               	movlw	0
  8483  0025FC  2244               	addwfc	___ftadd@f2+1,f,c
  8484  0025FE  0E00               	movlw	0
  8485  002600  2245               	addwfc	___ftadd@f2+2,f,c
  8486  002602  0E01               	movlw	1
  8487  002604  6E49               	movwf	___ftadd@sign,c
  8488  002606                     l750:
  8489  002606  C043  F013         	movff	___ftadd@f2,___ftpack@arg
  8490  00260A  C044  F014         	movff	___ftadd@f2+1,___ftpack@arg+1
  8491  00260E  C045  F015         	movff	___ftadd@f2+2,___ftpack@arg+2
  8492  002612  C04B  F016         	movff	___ftadd@exp1,___ftpack@exp
  8493  002616  C049  F017         	movff	___ftadd@sign,___ftpack@sign
  8494  00261A  EC1B  F017         	call	___ftpack	;wreg free
  8495  00261E  C013  F040         	movff	?___ftpack,?___ftadd
  8496  002622  C014  F041         	movff	?___ftpack+1,?___ftadd+1
  8497  002626  C015  F042         	movff	?___ftpack+2,?___ftadd+2
  8498  00262A  0012               	return	
  8499  00262C                     __end_of___ftadd:
  8500                           	opt stack 0
  8501                           tblptru	equ	0xFF8
  8502                           tblptrh	equ	0xFF7
  8503                           tblptrl	equ	0xFF6
  8504                           tablat	equ	0xFF5
  8505                           prodh	equ	0xFF4
  8506                           prodl	equ	0xFF3
  8507                           intcon	equ	0xFF2
  8508                           intcon2	equ	0xFF1
  8509                           intcon3	equ	0xFF0
  8510                           indf0	equ	0xFEF
  8511                           postinc0	equ	0xFEE
  8512                           fsr0h	equ	0xFEA
  8513                           fsr0l	equ	0xFE9
  8514                           wreg	equ	0xFE8
  8515                           indf1	equ	0xFE7
  8516                           postdec1	equ	0xFE5
  8517                           fsr1h	equ	0xFE2
  8518                           fsr1l	equ	0xFE1
  8519                           indf2	equ	0xFDF
  8520                           postinc2	equ	0xFDE
  8521                           postdec2	equ	0xFDD
  8522                           fsr2h	equ	0xFDA
  8523                           fsr2l	equ	0xFD9
  8524                           status	equ	0xFD8
  8525                           
  8526 ;; *************** function ___ftpack *****************
  8527 ;; Defined at:
  8528 ;;		line 62 in file "C:\Program Files (x86)\Microchip\xc8\v1.45\sources\common\float.c"
  8529 ;; Parameters:    Size  Location     Type
  8530 ;;  arg             3   18[COMRAM] unsigned um
  8531 ;;  exp             1   21[COMRAM] unsigned char 
  8532 ;;  sign            1   22[COMRAM] unsigned char 
  8533 ;; Auto vars:     Size  Location     Type
  8534 ;;		None
  8535 ;; Return value:  Size  Location     Type
  8536 ;;                  3   18[COMRAM] float 
  8537 ;; Registers used:
  8538 ;;		wreg, status,2, status,0
  8539 ;; Tracked objects:
  8540 ;;		On entry : 0/0
  8541 ;;		On exit  : 0/0
  8542 ;;		Unchanged: 0/0
  8543 ;; Data sizes:     COMRAM   BANK0   BANK1   BANK2   BANK3   BANK4   BANK5   BANK6   BANK7   BANK8   BANK9  BANK10  BANK1
      +1  BANK12  BANK13  BANK14  BANK15
  8544 ;;      Params:         5       0       0       0       0       0       0       0       0       0       0       0       
      +0       0       0       0       0
  8545 ;;      Locals:         0       0       0       0       0       0       0       0       0       0       0       0       
      +0       0       0       0       0
  8546 ;;      Temps:          3       0       0       0       0       0       0       0       0       0       0       0       
      +0       0       0       0       0
  8547 ;;      Totals:         8       0       0       0       0       0       0       0       0       0       0       0       
      +0       0       0       0       0
  8548 ;;Total ram usage:        8 bytes
  8549 ;; Hardware stack levels used:    1
  8550 ;; Hardware stack levels required when called:    1
  8551 ;; This function calls:
  8552 ;;		Nothing
  8553 ;; This function is called by:
  8554 ;;		___ftadd
  8555 ;;		___ftdiv
  8556 ;;		___ftmul
  8557 ;;		___lbtoft
  8558 ;;		___lltoft
  8559 ;;		___lwtoft
  8560 ;; This function uses a non-reentrant model
  8561 ;;
  8562                           
  8563                           	psect	text38
  8564  002E36                     __ptext38:
  8565                           	opt stack 0
  8566  002E36                     ___ftpack:
  8567                           	opt stack 25
  8568                           
  8569                           ;incstack = 0
  8570  002E36  5016               	movf	___ftpack@exp,w,c
  8571  002E38  B4D8               	btfsc	status,2,c
  8572  002E3A  D005               	goto	u3730
  8573  002E3C  5013               	movf	___ftpack@arg,w,c
  8574  002E3E  1014               	iorwf	___ftpack@arg+1,w,c
  8575  002E40  1015               	iorwf	___ftpack@arg+2,w,c
  8576  002E42  A4D8               	btfss	status,2,c
  8577  002E44  D00C               	goto	l691
  8578  002E46                     u3730:
  8579  002E46  0E00               	movlw	0
  8580  002E48  6E13               	movwf	?___ftpack,c
  8581  002E4A  0E00               	movlw	0
  8582  002E4C  6E14               	movwf	?___ftpack+1,c
  8583  002E4E  0E00               	movlw	0
  8584  002E50  6E15               	movwf	?___ftpack+2,c
  8585  002E52  0012               	return	
  8586  002E54  2A16               	incf	___ftpack@exp,f,c
  8587  002E56  90D8               	bcf	status,0,c
  8588  002E58  3215               	rrcf	___ftpack@arg+2,f,c
  8589  002E5A  3214               	rrcf	___ftpack@arg+1,f,c
  8590  002E5C  3213               	rrcf	___ftpack@arg,f,c
  8591  002E5E                     l691:
  8592  002E5E  0E00               	movlw	0
  8593  002E60  1413               	andwf	___ftpack@arg,w,c
  8594  002E62  6E18               	movwf	??___ftpack& (0+255),c
  8595  002E64  0E00               	movlw	0
  8596  002E66  1414               	andwf	___ftpack@arg+1,w,c
  8597  002E68  6E19               	movwf	(??___ftpack+1)& (0+255),c
  8598  002E6A  0EFE               	movlw	254
  8599  002E6C  1415               	andwf	___ftpack@arg+2,w,c
  8600  002E6E  6E1A               	movwf	(??___ftpack+2)& (0+255),c
  8601  002E70  5018               	movf	??___ftpack,w,c
  8602  002E72  1019               	iorwf	??___ftpack+1,w,c
  8603  002E74  101A               	iorwf	??___ftpack+2,w,c
  8604  002E76  B4D8               	btfsc	status,2,c
  8605  002E78  D00C               	goto	l694
  8606  002E7A  D7EC               	goto	l692
  8607  002E7C  2A16               	incf	___ftpack@exp,f,c
  8608  002E7E  0E01               	movlw	1
  8609  002E80  2613               	addwf	___ftpack@arg,f,c
  8610  002E82  0E00               	movlw	0
  8611  002E84  2214               	addwfc	___ftpack@arg+1,f,c
  8612  002E86  0E00               	movlw	0
  8613  002E88  2215               	addwfc	___ftpack@arg+2,f,c
  8614  002E8A  90D8               	bcf	status,0,c
  8615  002E8C  3215               	rrcf	___ftpack@arg+2,f,c
  8616  002E8E  3214               	rrcf	___ftpack@arg+1,f,c
  8617  002E90  3213               	rrcf	___ftpack@arg,f,c
  8618  002E92                     l694:
  8619  002E92  0E00               	movlw	0
  8620  002E94  1413               	andwf	___ftpack@arg,w,c
  8621  002E96  6E18               	movwf	??___ftpack& (0+255),c
  8622  002E98  0E00               	movlw	0
  8623  002E9A  1414               	andwf	___ftpack@arg+1,w,c
  8624  002E9C  6E19               	movwf	(??___ftpack+1)& (0+255),c
  8625  002E9E  0EFF               	movlw	255
  8626  002EA0  1415               	andwf	___ftpack@arg+2,w,c
  8627  002EA2  6E1A               	movwf	(??___ftpack+2)& (0+255),c
  8628  002EA4  5018               	movf	??___ftpack,w,c
  8629  002EA6  1019               	iorwf	??___ftpack+1,w,c
  8630  002EA8  101A               	iorwf	??___ftpack+2,w,c
  8631  002EAA  B4D8               	btfsc	status,2,c
  8632  002EAC  D006               	goto	l697
  8633  002EAE  D7E6               	goto	l695
  8634  002EB0  0616               	decf	___ftpack@exp,f,c
  8635  002EB2  90D8               	bcf	status,0,c
  8636  002EB4  3613               	rlcf	___ftpack@arg,f,c
  8637  002EB6  3614               	rlcf	___ftpack@arg+1,f,c
  8638  002EB8  3615               	rlcf	___ftpack@arg+2,f,c
  8639  002EBA                     l697:
  8640  002EBA  BE14               	btfsc	___ftpack@arg+1,7,c
  8641  002EBC  D003               	goto	u3770
  8642  002EBE  0E02               	movlw	2
  8643  002EC0  6016               	cpfslt	___ftpack@exp,c
  8644  002EC2  D7F6               	goto	l698
  8645  002EC4                     u3770:
  8646  002EC4  A016               	btfss	___ftpack@exp,0,c
  8647  002EC6  9E14               	bcf	___ftpack@arg+1,7,c
  8648  002EC8  90D8               	bcf	status,0,c
  8649  002ECA  3216               	rrcf	___ftpack@exp,f,c
  8650  002ECC  5016               	movf	___ftpack@exp,w,c
  8651  002ECE  1215               	iorwf	___ftpack@arg+2,f,c
  8652  002ED0  5017               	movf	___ftpack@sign,w,c
  8653  002ED2  A4D8               	btfss	status,2,c
  8654  002ED4  8E15               	bsf	___ftpack@arg+2,7,c
  8655  002ED6  C013  F013         	movff	___ftpack@arg,?___ftpack
  8656  002EDA  C014  F014         	movff	___ftpack@arg+1,?___ftpack+1
  8657  002EDE  C015  F015         	movff	___ftpack@arg+2,?___ftpack+2
  8658  002EE2  0012               	return	
  8659  002EE4                     __end_of___ftpack:
  8660                           	opt stack 0
  8661                           tblptru	equ	0xFF8
  8662                           tblptrh	equ	0xFF7
  8663                           tblptrl	equ	0xFF6
  8664                           tablat	equ	0xFF5
  8665                           prodh	equ	0xFF4
  8666                           prodl	equ	0xFF3
  8667                           intcon	equ	0xFF2
  8668                           intcon2	equ	0xFF1
  8669                           intcon3	equ	0xFF0
  8670                           indf0	equ	0xFEF
  8671                           postinc0	equ	0xFEE
  8672                           fsr0h	equ	0xFEA
  8673                           fsr0l	equ	0xFE9
  8674                           wreg	equ	0xFE8
  8675                           indf1	equ	0xFE7
  8676                           postdec1	equ	0xFE5
  8677                           fsr1h	equ	0xFE2
  8678                           fsr1l	equ	0xFE1
  8679                           indf2	equ	0xFDF
  8680                           postinc2	equ	0xFDE
  8681                           postdec2	equ	0xFDD
  8682                           fsr2h	equ	0xFDA
  8683                           fsr2l	equ	0xFD9
  8684                           status	equ	0xFD8
  8685                           
  8686 ;; *************** function _HeatMode *****************
  8687 ;; Defined at:
  8688 ;;		line 288 in file "Hw2.c"
  8689 ;; Parameters:    Size  Location     Type
  8690 ;;		None
  8691 ;; Auto vars:     Size  Location     Type
  8692 ;;  compare_valu    2   20[COMRAM] unsigned int 
  8693 ;; Return value:  Size  Location     Type
  8694 ;;                  1    wreg      void 
  8695 ;; Registers used:
  8696 ;;		wreg, status,2, status,0
  8697 ;; Tracked objects:
  8698 ;;		On entry : 0/0
  8699 ;;		On exit  : 0/0
  8700 ;;		Unchanged: 0/0
  8701 ;; Data sizes:     COMRAM   BANK0   BANK1   BANK2   BANK3   BANK4   BANK5   BANK6   BANK7   BANK8   BANK9  BANK10  BANK1
      +1  BANK12  BANK13  BANK14  BANK15
  8702 ;;      Params:         0       0       0       0       0       0       0       0       0       0       0       0       
      +0       0       0       0       0
  8703 ;;      Locals:         2       0       0       0       0       0       0       0       0       0       0       0       
      +0       0       0       0       0
  8704 ;;      Temps:          2       0       0       0       0       0       0       0       0       0       0       0       
      +0       0       0       0       0
  8705 ;;      Totals:         4       0       0       0       0       0       0       0       0       0       0       0       
      +0       0       0       0       0
  8706 ;;Total ram usage:        4 bytes
  8707 ;; Hardware stack levels used:    1
  8708 ;; Hardware stack levels required when called:    1
  8709 ;; This function calls:
  8710 ;;		Nothing
  8711 ;; This function is called by:
  8712 ;;		_main
  8713 ;;		_AutoCoolMode
  8714 ;; This function uses a non-reentrant model
  8715 ;;
  8716                           
  8717                           	psect	text39
  8718  003404                     __ptext39:
  8719                           	opt stack 0
  8720  003404                     _HeatMode:
  8721                           	opt stack 29
  8722                           
  8723                           ;Hw2.c: 290: heaterOn = 1;
  8724                           
  8725                           ;incstack = 0
  8726  003404  0E01               	movlw	1
  8727  003406  6E65               	movwf	_heaterOn,c
  8728                           
  8729                           ;Hw2.c: 291: coolerOn = 0;
  8730  003408  0E00               	movlw	0
  8731  00340A  6E64               	movwf	_coolerOn,c
  8732                           
  8733                           ;Hw2.c: 294: CCP1CON = 0x00;
  8734  00340C  0E00               	movlw	0
  8735  00340E  6EBD               	movwf	4029,c	;volatile
  8736                           
  8737                           ;Hw2.c: 295: PORTCbits.RC2 = 0;
  8738  003410  9482               	bcf	3970,2,c	;volatile
  8739                           
  8740                           ;Hw2.c: 298: PIE1bits.TMR1IE = 1;
  8741  003412  809D               	bsf	3997,0,c	;volatile
  8742                           
  8743                           ;Hw2.c: 299: PIE2bits.CCP2IE = 1;
  8744  003414  80A0               	bsf	4000,0,c	;volatile
  8745                           
  8746                           ;Hw2.c: 301: unsigned int compare_value = raw_AI1 * 64u;
  8747  003416  C060  F013         	movff	_raw_AI1,??_HeatMode
  8748  00341A  C061  F014         	movff	_raw_AI1+1,??_HeatMode+1
  8749  00341E  0E06               	movlw	6
  8750  003420                     u2835:
  8751  003420  90D8               	bcf	status,0,c
  8752  003422  3613               	rlcf	??_HeatMode,f,c
  8753  003424  3614               	rlcf	??_HeatMode+1,f,c
  8754  003426  2EE8               	decfsz	wreg,f,c
  8755  003428  D7FB               	goto	u2835
  8756  00342A  C013  F015         	movff	??_HeatMode,HeatMode@compare_value
  8757  00342E  C014  F016         	movff	??_HeatMode+1,HeatMode@compare_value+1
  8758                           
  8759                           ;Hw2.c: 303: CCPR2H = compare_value >> 8;
  8760  003432  5016               	movf	HeatMode@compare_value+1,w,c
  8761  003434  6EBC               	movwf	4028,c	;volatile
  8762                           
  8763                           ;Hw2.c: 304: CCPR2L = compare_value & 0xFF;
  8764  003436  C015  FFBB         	movff	HeatMode@compare_value,4027	;volatile
  8765  00343A  0012               	return		;funcret
  8766  00343C                     __end_of_HeatMode:
  8767                           	opt stack 0
  8768                           tblptru	equ	0xFF8
  8769                           tblptrh	equ	0xFF7
  8770                           tblptrl	equ	0xFF6
  8771                           tablat	equ	0xFF5
  8772                           prodh	equ	0xFF4
  8773                           prodl	equ	0xFF3
  8774                           intcon	equ	0xFF2
  8775                           intcon2	equ	0xFF1
  8776                           intcon3	equ	0xFF0
  8777                           indf0	equ	0xFEF
  8778                           postinc0	equ	0xFEE
  8779                           fsr0h	equ	0xFEA
  8780                           fsr0l	equ	0xFE9
  8781                           wreg	equ	0xFE8
  8782                           indf1	equ	0xFE7
  8783                           postdec1	equ	0xFE5
  8784                           fsr1h	equ	0xFE2
  8785                           fsr1l	equ	0xFE1
  8786                           indf2	equ	0xFDF
  8787                           postinc2	equ	0xFDE
  8788                           postdec2	equ	0xFDD
  8789                           fsr2h	equ	0xFDA
  8790                           fsr2l	equ	0xFD9
  8791                           status	equ	0xFD8
  8792                           
  8793 ;; *************** function _CoolMode *****************
  8794 ;; Defined at:
  8795 ;;		line 308 in file "Hw2.c"
  8796 ;; Parameters:    Size  Location     Type
  8797 ;;		None
  8798 ;; Auto vars:     Size  Location     Type
  8799 ;;		None
  8800 ;; Return value:  Size  Location     Type
  8801 ;;                  1    wreg      void 
  8802 ;; Registers used:
  8803 ;;		wreg, status,2, status,0, cstack
  8804 ;; Tracked objects:
  8805 ;;		On entry : 0/0
  8806 ;;		On exit  : 0/0
  8807 ;;		Unchanged: 0/0
  8808 ;; Data sizes:     COMRAM   BANK0   BANK1   BANK2   BANK3   BANK4   BANK5   BANK6   BANK7   BANK8   BANK9  BANK10  BANK1
      +1  BANK12  BANK13  BANK14  BANK15
  8809 ;;      Params:         0       0       0       0       0       0       0       0       0       0       0       0       
      +0       0       0       0       0
  8810 ;;      Locals:         0       0       0       0       0       0       0       0       0       0       0       0       
      +0       0       0       0       0
  8811 ;;      Temps:          0       0       0       0       0       0       0       0       0       0       0       0       
      +0       0       0       0       0
  8812 ;;      Totals:         0       0       0       0       0       0       0       0       0       0       0       0       
      +0       0       0       0       0
  8813 ;;Total ram usage:        0 bytes
  8814 ;; Hardware stack levels used:    1
  8815 ;; Hardware stack levels required when called:    2
  8816 ;; This function calls:
  8817 ;;		_init_pwm1
  8818 ;;		_set_pwm1_raw
  8819 ;; This function is called by:
  8820 ;;		_main
  8821 ;;		_AutoCoolMode
  8822 ;; This function uses a non-reentrant model
  8823 ;;
  8824                           
  8825                           	psect	text40
  8826  003512                     __ptext40:
  8827                           	opt stack 0
  8828  003512                     _CoolMode:
  8829                           	opt stack 28
  8830                           
  8831                           ;Hw2.c: 310: heaterOn = 0;
  8832                           
  8833                           ;incstack = 0
  8834  003512  0E00               	movlw	0
  8835  003514  6E65               	movwf	_heaterOn,c
  8836                           
  8837                           ;Hw2.c: 311: coolerOn = 1;
  8838  003516  0E01               	movlw	1
  8839  003518  6E64               	movwf	_coolerOn,c
  8840                           
  8841                           ;Hw2.c: 313: PORTCbits.RC5 = 0;
  8842  00351A  9A82               	bcf	3970,5,c	;volatile
  8843                           
  8844                           ;Hw2.c: 315: PIE1bits.TMR1IE = 0;
  8845  00351C  909D               	bcf	3997,0,c	;volatile
  8846                           
  8847                           ;Hw2.c: 316: PIE2bits.CCP2IE = 0;
  8848  00351E  90A0               	bcf	4000,0,c	;volatile
  8849                           
  8850                           ;Hw2.c: 318: T2CONbits.T2CKPS = 0b11;
  8851  003520  0E03               	movlw	3
  8852  003522  12CA               	iorwf	4042,f,c	;volatile
  8853                           
  8854                           ;Hw2.c: 319: T2CONbits.TMR2ON = 1;
  8855  003524  84CA               	bsf	4042,2,c	;volatile
  8856                           
  8857                           ;Hw2.c: 321: init_pwm1();
  8858  003526  EC1E  F01B         	call	_init_pwm1	;wreg free
  8859                           
  8860                           ;Hw2.c: 322: set_pwm1_raw(raw_AI1);
  8861  00352A  C060  F013         	movff	_raw_AI1,set_pwm1_raw@raw_value
  8862  00352E  C061  F014         	movff	_raw_AI1+1,set_pwm1_raw@raw_value+1
  8863  003532  EC4C  F01A         	call	_set_pwm1_raw	;wreg free
  8864  003536  0012               	return		;funcret
  8865  003538                     __end_of_CoolMode:
  8866                           	opt stack 0
  8867                           tblptru	equ	0xFF8
  8868                           tblptrh	equ	0xFF7
  8869                           tblptrl	equ	0xFF6
  8870                           tablat	equ	0xFF5
  8871                           prodh	equ	0xFF4
  8872                           prodl	equ	0xFF3
  8873                           intcon	equ	0xFF2
  8874                           intcon2	equ	0xFF1
  8875                           intcon3	equ	0xFF0
  8876                           indf0	equ	0xFEF
  8877                           postinc0	equ	0xFEE
  8878                           fsr0h	equ	0xFEA
  8879                           fsr0l	equ	0xFE9
  8880                           wreg	equ	0xFE8
  8881                           indf1	equ	0xFE7
  8882                           postdec1	equ	0xFE5
  8883                           fsr1h	equ	0xFE2
  8884                           fsr1l	equ	0xFE1
  8885                           indf2	equ	0xFDF
  8886                           postinc2	equ	0xFDE
  8887                           postdec2	equ	0xFDD
  8888                           fsr2h	equ	0xFDA
  8889                           fsr2l	equ	0xFD9
  8890                           status	equ	0xFD8
  8891                           
  8892 ;; *************** function _set_pwm1_raw *****************
  8893 ;; Defined at:
  8894 ;;		line 14 in file "my_pwm.c"
  8895 ;; Parameters:    Size  Location     Type
  8896 ;;  raw_value       2   18[COMRAM] unsigned int 
  8897 ;; Auto vars:     Size  Location     Type
  8898 ;;		None
  8899 ;; Return value:  Size  Location     Type
  8900 ;;                  1    wreg      void 
  8901 ;; Registers used:
  8902 ;;		wreg, status,2, status,0
  8903 ;; Tracked objects:
  8904 ;;		On entry : 0/0
  8905 ;;		On exit  : 0/0
  8906 ;;		Unchanged: 0/0
  8907 ;; Data sizes:     COMRAM   BANK0   BANK1   BANK2   BANK3   BANK4   BANK5   BANK6   BANK7   BANK8   BANK9  BANK10  BANK1
      +1  BANK12  BANK13  BANK14  BANK15
  8908 ;;      Params:         2       0       0       0       0       0       0       0       0       0       0       0       
      +0       0       0       0       0
  8909 ;;      Locals:         0       0       0       0       0       0       0       0       0       0       0       0       
      +0       0       0       0       0
  8910 ;;      Temps:          2       0       0       0       0       0       0       0       0       0       0       0       
      +0       0       0       0       0
  8911 ;;      Totals:         4       0       0       0       0       0       0       0       0       0       0       0       
      +0       0       0       0       0
  8912 ;;Total ram usage:        4 bytes
  8913 ;; Hardware stack levels used:    1
  8914 ;; Hardware stack levels required when called:    1
  8915 ;; This function calls:
  8916 ;;		Nothing
  8917 ;; This function is called by:
  8918 ;;		_CoolMode
  8919 ;;		_set_pwm1_percent
  8920 ;;		_set_pwm1_voltage
  8921 ;;		_set_pwm1_general
  8922 ;; This function uses a non-reentrant model
  8923 ;;
  8924                           
  8925                           	psect	text41
  8926  003498                     __ptext41:
  8927                           	opt stack 0
  8928  003498                     _set_pwm1_raw:
  8929                           	opt stack 28
  8930                           
  8931                           ;my_pwm.c: 16: CCPR1L = (raw_value >> 2) & 0x00FF;
  8932                           
  8933                           ;incstack = 0
  8934  003498  C013  F015         	movff	set_pwm1_raw@raw_value,??_set_pwm1_raw
  8935  00349C  C014  F016         	movff	set_pwm1_raw@raw_value+1,??_set_pwm1_raw+1
  8936  0034A0  90D8               	bcf	status,0,c
  8937  0034A2  3216               	rrcf	??_set_pwm1_raw+1,f,c
  8938  0034A4  3215               	rrcf	??_set_pwm1_raw,f,c
  8939  0034A6  90D8               	bcf	status,0,c
  8940  0034A8  3216               	rrcf	??_set_pwm1_raw+1,f,c
  8941  0034AA  3215               	rrcf	??_set_pwm1_raw,f,c
  8942  0034AC  5015               	movf	??_set_pwm1_raw,w,c
  8943  0034AE  6EBE               	movwf	4030,c	;volatile
  8944                           
  8945                           ;my_pwm.c: 17: CCP1CONbits.DC1B = raw_value & 0x0003;
  8946  0034B0  C013  F015         	movff	set_pwm1_raw@raw_value,??_set_pwm1_raw
  8947  0034B4  0E03               	movlw	3
  8948  0034B6  1615               	andwf	??_set_pwm1_raw,f,c
  8949  0034B8  3A15               	swapf	??_set_pwm1_raw,f,c
  8950  0034BA  50BD               	movf	4029,w,c	;volatile
  8951  0034BC  1815               	xorwf	??_set_pwm1_raw,w,c
  8952  0034BE  0BCF               	andlw	-49
  8953  0034C0  1815               	xorwf	??_set_pwm1_raw,w,c
  8954  0034C2  6EBD               	movwf	4029,c	;volatile
  8955  0034C4  0012               	return		;funcret
  8956  0034C6                     __end_of_set_pwm1_raw:
  8957                           	opt stack 0
  8958                           tblptru	equ	0xFF8
  8959                           tblptrh	equ	0xFF7
  8960                           tblptrl	equ	0xFF6
  8961                           tablat	equ	0xFF5
  8962                           prodh	equ	0xFF4
  8963                           prodl	equ	0xFF3
  8964                           intcon	equ	0xFF2
  8965                           intcon2	equ	0xFF1
  8966                           intcon3	equ	0xFF0
  8967                           indf0	equ	0xFEF
  8968                           postinc0	equ	0xFEE
  8969                           fsr0h	equ	0xFEA
  8970                           fsr0l	equ	0xFE9
  8971                           wreg	equ	0xFE8
  8972                           indf1	equ	0xFE7
  8973                           postdec1	equ	0xFE5
  8974                           fsr1h	equ	0xFE2
  8975                           fsr1l	equ	0xFE1
  8976                           indf2	equ	0xFDF
  8977                           postinc2	equ	0xFDE
  8978                           postdec2	equ	0xFDD
  8979                           fsr2h	equ	0xFDA
  8980                           fsr2l	equ	0xFD9
  8981                           status	equ	0xFD8
  8982                           
  8983 ;; *************** function _init_pwm1 *****************
  8984 ;; Defined at:
  8985 ;;		line 5 in file "my_pwm.c"
  8986 ;; Parameters:    Size  Location     Type
  8987 ;;		None
  8988 ;; Auto vars:     Size  Location     Type
  8989 ;;		None
  8990 ;; Return value:  Size  Location     Type
  8991 ;;                  1    wreg      void 
  8992 ;; Registers used:
  8993 ;;		wreg, status,2
  8994 ;; Tracked objects:
  8995 ;;		On entry : 0/0
  8996 ;;		On exit  : 0/0
  8997 ;;		Unchanged: 0/0
  8998 ;; Data sizes:     COMRAM   BANK0   BANK1   BANK2   BANK3   BANK4   BANK5   BANK6   BANK7   BANK8   BANK9  BANK10  BANK1
      +1  BANK12  BANK13  BANK14  BANK15
  8999 ;;      Params:         0       0       0       0       0       0       0       0       0       0       0       0       
      +0       0       0       0       0
  9000 ;;      Locals:         0       0       0       0       0       0       0       0       0       0       0       0       
      +0       0       0       0       0
  9001 ;;      Temps:          0       0       0       0       0       0       0       0       0       0       0       0       
      +0       0       0       0       0
  9002 ;;      Totals:         0       0       0       0       0       0       0       0       0       0       0       0       
      +0       0       0       0       0
  9003 ;;Total ram usage:        0 bytes
  9004 ;; Hardware stack levels used:    1
  9005 ;; Hardware stack levels required when called:    1
  9006 ;; This function calls:
  9007 ;;		Nothing
  9008 ;; This function is called by:
  9009 ;;		_main
  9010 ;;		_CoolMode
  9011 ;; This function uses a non-reentrant model
  9012 ;;
  9013                           
  9014                           	psect	text42
  9015  00363C                     __ptext42:
  9016                           	opt stack 0
  9017  00363C                     _init_pwm1:
  9018                           	opt stack 29
  9019                           
  9020                           ;my_pwm.c: 7: PR2 = 255;
  9021                           
  9022                           ;incstack = 0
  9023  00363C  68CB               	setf	4043,c	;volatile
  9024                           
  9025                           ;my_pwm.c: 8: T2CON = 0;
  9026  00363E  0E00               	movlw	0
  9027  003640  6ECA               	movwf	4042,c	;volatile
  9028                           
  9029                           ;my_pwm.c: 9: CCP1CON = 0x0C;
  9030  003642  0E0C               	movlw	12
  9031  003644  6EBD               	movwf	4029,c	;volatile
  9032                           
  9033                           ;my_pwm.c: 11: T2CONbits.TMR2ON = 1;
  9034  003646  84CA               	bsf	4042,2,c	;volatile
  9035                           
  9036                           ;my_pwm.c: 12: TRISCbits.RC2 =0;
  9037  003648  9494               	bcf	3988,2,c	;volatile
  9038  00364A  0012               	return		;funcret
  9039  00364C                     __end_of_init_pwm1:
  9040                           	opt stack 0
  9041                           tblptru	equ	0xFF8
  9042                           tblptrh	equ	0xFF7
  9043                           tblptrl	equ	0xFF6
  9044                           tablat	equ	0xFF5
  9045                           prodh	equ	0xFF4
  9046                           prodl	equ	0xFF3
  9047                           intcon	equ	0xFF2
  9048                           intcon2	equ	0xFF1
  9049                           intcon3	equ	0xFF0
  9050                           indf0	equ	0xFEF
  9051                           postinc0	equ	0xFEE
  9052                           fsr0h	equ	0xFEA
  9053                           fsr0l	equ	0xFE9
  9054                           wreg	equ	0xFE8
  9055                           indf1	equ	0xFE7
  9056                           postdec1	equ	0xFE5
  9057                           fsr1h	equ	0xFE2
  9058                           fsr1l	equ	0xFE1
  9059                           indf2	equ	0xFDF
  9060                           postinc2	equ	0xFDE
  9061                           postdec2	equ	0xFDD
  9062                           fsr2h	equ	0xFDA
  9063                           fsr2l	equ	0xFD9
  9064                           status	equ	0xFD8
  9065                           
  9066 ;; *************** function _highIsr *****************
  9067 ;; Defined at:
  9068 ;;		line 240 in file "Hw2.c"
  9069 ;; Parameters:    Size  Location     Type
  9070 ;;		None
  9071 ;; Auto vars:     Size  Location     Type
  9072 ;;		None
  9073 ;; Return value:  Size  Location     Type
  9074 ;;                  1    wreg      void 
  9075 ;; Registers used:
  9076 ;;		wreg, status,2
  9077 ;; Tracked objects:
  9078 ;;		On entry : 0/0
  9079 ;;		On exit  : 0/0
  9080 ;;		Unchanged: 0/0
  9081 ;; Data sizes:     COMRAM   BANK0   BANK1   BANK2   BANK3   BANK4   BANK5   BANK6   BANK7   BANK8   BANK9  BANK10  BANK1
      +1  BANK12  BANK13  BANK14  BANK15
  9082 ;;      Params:         0       0       0       0       0       0       0       0       0       0       0       0       
      +0       0       0       0       0
  9083 ;;      Locals:         0       0       0       0       0       0       0       0       0       0       0       0       
      +0       0       0       0       0
  9084 ;;      Temps:         18       0       0       0       0       0       0       0       0       0       0       0       
      +0       0       0       0       0
  9085 ;;      Totals:        18       0       0       0       0       0       0       0       0       0       0       0       
      +0       0       0       0       0
  9086 ;;Total ram usage:       18 bytes
  9087 ;; Hardware stack levels used:    1
  9088 ;; This function calls:
  9089 ;;		Nothing
  9090 ;; This function is called by:
  9091 ;;		Interrupt level 2
  9092 ;; This function uses a non-reentrant model
  9093 ;;
  9094                           
  9095                           	psect	intcode
  9096  000008                     __pintcode:
  9097                           	opt stack 0
  9098  000008                     _highIsr:
  9099                           	opt stack 23
  9100                           
  9101                           ;incstack = 0
  9102  000008  826B               	bsf	btemp,1,c	;set compiler interrupt flag (level 2)
  9103  00000A  ED53  F016         	call	int_func,f	;refresh shadow registers
  9104                           tblptru	equ	0xFF8
  9105                           tblptrh	equ	0xFF7
  9106                           tblptrl	equ	0xFF6
  9107                           tablat	equ	0xFF5
  9108                           prodh	equ	0xFF4
  9109                           prodl	equ	0xFF3
  9110                           intcon	equ	0xFF2
  9111                           intcon2	equ	0xFF1
  9112                           intcon3	equ	0xFF0
  9113                           indf0	equ	0xFEF
  9114                           postinc0	equ	0xFEE
  9115                           fsr0h	equ	0xFEA
  9116                           fsr0l	equ	0xFE9
  9117                           wreg	equ	0xFE8
  9118                           indf1	equ	0xFE7
  9119                           postdec1	equ	0xFE5
  9120                           fsr1h	equ	0xFE2
  9121                           fsr1l	equ	0xFE1
  9122                           indf2	equ	0xFDF
  9123                           postinc2	equ	0xFDE
  9124                           postdec2	equ	0xFDD
  9125                           fsr2h	equ	0xFDA
  9126                           fsr2l	equ	0xFD9
  9127                           status	equ	0xFD8
  9128                           
  9129                           	psect	intcode_body
  9130  002CA6                     __pintcode_body:
  9131                           	opt stack 23
  9132  002CA6                     int_func:
  9133                           	opt stack 23
  9134  002CA6  0006               	pop		; remove dummy address from shadow register refresh
  9135  002CA8  CFFA F001          	movff	pclath,??_highIsr
  9136  002CAC  CFFB F002          	movff	pclatu,??_highIsr+1
  9137  002CB0  CFE9 F003          	movff	fsr0l,??_highIsr+2
  9138  002CB4  CFEA F004          	movff	fsr0h,??_highIsr+3
  9139  002CB8  CFE1 F005          	movff	fsr1l,??_highIsr+4
  9140  002CBC  CFE2 F006          	movff	fsr1h,??_highIsr+5
  9141  002CC0  CFD9 F007          	movff	fsr2l,??_highIsr+6
  9142  002CC4  CFDA F008          	movff	fsr2h,??_highIsr+7
  9143  002CC8  CFF3 F009          	movff	prodl,??_highIsr+8
  9144  002CCC  CFF4 F00A          	movff	prodh,??_highIsr+9
  9145  002CD0  CFF6 F00B          	movff	tblptrl,??_highIsr+10
  9146  002CD4  CFF7 F00C          	movff	tblptrh,??_highIsr+11
  9147  002CD8  CFF8 F00D          	movff	tblptru,??_highIsr+12
  9148  002CDC  CFF5 F00E          	movff	tablat,??_highIsr+13
  9149  002CE0  C06B  F00F         	movff	btemp,??_highIsr+14
  9150  002CE4  C06C  F010         	movff	btemp+1,??_highIsr+15
  9151  002CE8  C06D  F011         	movff	btemp+2,??_highIsr+16
  9152  002CEC  C06E  F012         	movff	btemp+3,??_highIsr+17
  9153                           
  9154                           ;Hw2.c: 242: if (INTCONbits.INT0IF) {
  9155  002CF0  A2F2               	btfss	intcon,1,c	;volatile
  9156  002CF2  D003               	goto	i2l172
  9157                           
  9158                           ;Hw2.c: 243: INTCONbits.INT0IF = 0;
  9159  002CF4  92F2               	bcf	intcon,1,c	;volatile
  9160                           
  9161                           ;Hw2.c: 244: mode_change_flag = 1;
  9162  002CF6  0E01               	movlw	1
  9163  002CF8  6E68               	movwf	_mode_change_flag,c	;volatile
  9164  002CFA                     i2l172:
  9165                           
  9166                           ;Hw2.c: 245: }
  9167                           ;Hw2.c: 247: if (INTCON3bits.INT1IF) {
  9168  002CFA  A0F0               	btfss	intcon3,0,c	;volatile
  9169  002CFC  D003               	goto	i2l173
  9170                           
  9171                           ;Hw2.c: 248: INTCON3bits.INT1IF = 0;
  9172  002CFE  90F0               	bcf	intcon3,0,c	;volatile
  9173                           
  9174                           ;Hw2.c: 249: hs_change_flag = 1;
  9175  002D00  0E01               	movlw	1
  9176  002D02  6E67               	movwf	_hs_change_flag,c	;volatile
  9177  002D04                     i2l173:
  9178                           
  9179                           ;Hw2.c: 250: }
  9180                           ;Hw2.c: 252: if (INTCON3bits.INT2IF) {
  9181  002D04  A2F0               	btfss	intcon3,1,c	;volatile
  9182  002D06  D003               	goto	i2l174
  9183                           
  9184                           ;Hw2.c: 253: INTCON3bits.INT2IF = 0;
  9185  002D08  92F0               	bcf	intcon3,1,c	;volatile
  9186                           
  9187                           ;Hw2.c: 254: off_flag = 1;
  9188  002D0A  0E01               	movlw	1
  9189  002D0C  6E66               	movwf	_off_flag,c	;volatile
  9190  002D0E                     i2l174:
  9191                           
  9192                           ;Hw2.c: 255: }
  9193                           ;Hw2.c: 257: if (PIR2bits.CCP2IF) {
  9194  002D0E  A0A1               	btfss	4001,0,c	;volatile
  9195  002D10  D002               	goto	i2l175
  9196                           
  9197                           ;Hw2.c: 258: PIR2bits.CCP2IF = 0;
  9198  002D12  90A1               	bcf	4001,0,c	;volatile
  9199                           
  9200                           ;Hw2.c: 259: PORTCbits.RC5 = 0;
  9201  002D14  9A82               	bcf	3970,5,c	;volatile
  9202  002D16                     i2l175:
  9203                           
  9204                           ;Hw2.c: 260: }
  9205                           ;Hw2.c: 262: if (PIR1bits.TMR1IF) {
  9206  002D16  A09E               	btfss	3998,0,c	;volatile
  9207  002D18  D006               	goto	i2l176
  9208                           
  9209                           ;Hw2.c: 263: PIR1bits.TMR1IF = 0;
  9210  002D1A  909E               	bcf	3998,0,c	;volatile
  9211                           
  9212                           ;Hw2.c: 264: PORTCbits.RC5 = 1;
  9213  002D1C  8A82               	bsf	3970,5,c	;volatile
  9214                           
  9215                           ;Hw2.c: 265: TMR1 = 0;
  9216  002D1E  0E00               	movlw	0
  9217  002D20  6ECF               	movwf	4047,c	;volatile
  9218  002D22  0E00               	movlw	0
  9219  002D24  6ECE               	movwf	4046,c	;volatile
  9220  002D26                     i2l176:
  9221  002D26  C012  F06E         	movff	??_highIsr+17,btemp+3
  9222  002D2A  C011  F06D         	movff	??_highIsr+16,btemp+2
  9223  002D2E  C010  F06C         	movff	??_highIsr+15,btemp+1
  9224  002D32  C00F  F06B         	movff	??_highIsr+14,btemp
  9225  002D36  C00E  FFF5         	movff	??_highIsr+13,tablat
  9226  002D3A  C00D  FFF8         	movff	??_highIsr+12,tblptru
  9227  002D3E  C00C  FFF7         	movff	??_highIsr+11,tblptrh
  9228  002D42  C00B  FFF6         	movff	??_highIsr+10,tblptrl
  9229  002D46  C00A  FFF4         	movff	??_highIsr+9,prodh
  9230  002D4A  C009  FFF3         	movff	??_highIsr+8,prodl
  9231  002D4E  C008  FFDA         	movff	??_highIsr+7,fsr2h
  9232  002D52  C007  FFD9         	movff	??_highIsr+6,fsr2l
  9233  002D56  C006  FFE2         	movff	??_highIsr+5,fsr1h
  9234  002D5A  C005  FFE1         	movff	??_highIsr+4,fsr1l
  9235  002D5E  C004  FFEA         	movff	??_highIsr+3,fsr0h
  9236  002D62  C003  FFE9         	movff	??_highIsr+2,fsr0l
  9237  002D66  C002  FFFB         	movff	??_highIsr+1,pclatu
  9238  002D6A  C001  FFFA         	movff	??_highIsr,pclath
  9239  002D6E  926B               	bcf	btemp,1,c	;clear compiler interrupt flag (level 2)
  9240  002D70  0011               	retfie		f
  9241  002D72                     __end_of_highIsr:
  9242                           	opt stack 0
  9243                           pclatu	equ	0xFFB
  9244                           pclath	equ	0xFFA
  9245                           tblptru	equ	0xFF8
  9246                           tblptrh	equ	0xFF7
  9247                           tblptrl	equ	0xFF6
  9248                           tablat	equ	0xFF5
  9249                           prodh	equ	0xFF4
  9250                           prodl	equ	0xFF3
  9251                           intcon	equ	0xFF2
  9252                           intcon2	equ	0xFF1
  9253                           intcon3	equ	0xFF0
  9254                           indf0	equ	0xFEF
  9255                           postinc0	equ	0xFEE
  9256                           fsr0h	equ	0xFEA
  9257                           fsr0l	equ	0xFE9
  9258                           wreg	equ	0xFE8
  9259                           indf1	equ	0xFE7
  9260                           postdec1	equ	0xFE5
  9261                           fsr1h	equ	0xFE2
  9262                           fsr1l	equ	0xFE1
  9263                           indf2	equ	0xFDF
  9264                           postinc2	equ	0xFDE
  9265                           postdec2	equ	0xFDD
  9266                           fsr2h	equ	0xFDA
  9267                           fsr2l	equ	0xFD9
  9268                           status	equ	0xFD8
  9269                           pclatu	equ	0xFFB
  9270                           pclath	equ	0xFFA
  9271                           tblptru	equ	0xFF8
  9272                           tblptrh	equ	0xFF7
  9273                           tblptrl	equ	0xFF6
  9274                           tablat	equ	0xFF5
  9275                           prodh	equ	0xFF4
  9276                           prodl	equ	0xFF3
  9277                           intcon	equ	0xFF2
  9278                           intcon2	equ	0xFF1
  9279                           intcon3	equ	0xFF0
  9280                           indf0	equ	0xFEF
  9281                           postinc0	equ	0xFEE
  9282                           fsr0h	equ	0xFEA
  9283                           fsr0l	equ	0xFE9
  9284                           wreg	equ	0xFE8
  9285                           indf1	equ	0xFE7
  9286                           postdec1	equ	0xFE5
  9287                           fsr1h	equ	0xFE2
  9288                           fsr1l	equ	0xFE1
  9289                           indf2	equ	0xFDF
  9290                           postinc2	equ	0xFDE
  9291                           postdec2	equ	0xFDD
  9292                           fsr2h	equ	0xFDA
  9293                           fsr2l	equ	0xFD9
  9294                           status	equ	0xFD8
  9295                           
  9296                           	psect	rparam
  9297  0000                     pclatu	equ	0xFFB
  9298                           pclath	equ	0xFFA
  9299                           tblptru	equ	0xFF8
  9300                           tblptrh	equ	0xFF7
  9301                           tblptrl	equ	0xFF6
  9302                           tablat	equ	0xFF5
  9303                           prodh	equ	0xFF4
  9304                           prodl	equ	0xFF3
  9305                           intcon	equ	0xFF2
  9306                           intcon2	equ	0xFF1
  9307                           intcon3	equ	0xFF0
  9308                           indf0	equ	0xFEF
  9309                           postinc0	equ	0xFEE
  9310                           fsr0h	equ	0xFEA
  9311                           fsr0l	equ	0xFE9
  9312                           wreg	equ	0xFE8
  9313                           indf1	equ	0xFE7
  9314                           postdec1	equ	0xFE5
  9315                           fsr1h	equ	0xFE2
  9316                           fsr1l	equ	0xFE1
  9317                           indf2	equ	0xFDF
  9318                           postinc2	equ	0xFDE
  9319                           postdec2	equ	0xFDD
  9320                           fsr2h	equ	0xFDA
  9321                           fsr2l	equ	0xFD9
  9322                           status	equ	0xFD8
  9323                           
  9324                           	psect	temp
  9325  00006B                     btemp:
  9326                           	opt stack 0
  9327  00006B                     	ds	1
  9328  0000                     int$flags	set	btemp
  9329  0000                     wtemp6	set	btemp+1
  9330                           pclatu	equ	0xFFB
  9331                           pclath	equ	0xFFA
  9332                           tblptru	equ	0xFF8
  9333                           tblptrh	equ	0xFF7
  9334                           tblptrl	equ	0xFF6
  9335                           tablat	equ	0xFF5
  9336                           prodh	equ	0xFF4
  9337                           prodl	equ	0xFF3
  9338                           intcon	equ	0xFF2
  9339                           intcon2	equ	0xFF1
  9340                           intcon3	equ	0xFF0
  9341                           indf0	equ	0xFEF
  9342                           postinc0	equ	0xFEE
  9343                           fsr0h	equ	0xFEA
  9344                           fsr0l	equ	0xFE9
  9345                           wreg	equ	0xFE8
  9346                           indf1	equ	0xFE7
  9347                           postdec1	equ	0xFE5
  9348                           fsr1h	equ	0xFE2
  9349                           fsr1l	equ	0xFE1
  9350                           indf2	equ	0xFDF
  9351                           postinc2	equ	0xFDE
  9352                           postdec2	equ	0xFDD
  9353                           fsr2h	equ	0xFDA
  9354                           fsr2l	equ	0xFD9
  9355                           status	equ	0xFD8


Data Sizes:
    Strings     112
    Constant    118
    Data        4
    BSS         63
    Persistent  0
    Stack       0

Auto Spaces:
    Space          Size  Autos    Used
    COMRAM          126     87     106
    BANK0           128     52     100
    BANK1           256      0       0
    BANK2           256      0       0
    BANK3           256      0       0
    BANK4           256      0       0
    BANK5           256      0       0
    BANK6           256      0       0
    BANK7           256      0       0
    BANK8           256      0       0
    BANK9           256      0       0
    BANK10          256      0       0
    BANK11          256      0       0
    BANK12          256      0       0
    BANK13          256      0       0
    BANK14          256      0       0
    BANK15          128      0       0

Pointer List with Targets:

    sprintf@cp	PTR const unsigned char  size(2) Largest target is 1
		 -> sprintf@c(BANK0[1]), 

    sprintf@f	PTR const unsigned char  size(2) Largest target is 18
		 -> STR_3(CODE[18]), STR_2(CODE[18]), STR_1(CODE[16]), 

    sprintf@sp	PTR unsigned char  size(2) Largest target is 32
		 -> Buffer(BANK0[32]), 

    sprintf@ap	PTR void [1] size(2) Largest target is 2
		 -> ?_sprintf(BANK0[2]), 

    lcd_puts@s	PTR unsigned char  size(2) Largest target is 32
		 -> STR_7(CODE[15]), STR_6(CODE[15]), STR_5(CODE[15]), STR_4(CODE[15]), 
		 -> Buffer(BANK0[32]), 


Critical Paths under _main in COMRAM

    _main->_AutoCoolMode
    _sprintf->___ftge
    _scale->___ftmul
    _fround->___ftmul
    ___wmul->___awdiv
    ___ftmul->___wmul
    ___awdiv->___awmod
    ___lltoft->___ftpack
    ___llmod->___lldiv
    ___fttol->_scale
    ___ftsub->___ftadd
    _lcd_puts->_lcd_putc
    _lcd_putc->_lcd_gotoxy
    _lcd_gotoxy->_lcd_send_byte
    _lcd_init->_lcd_send_byte
    _lcd_send_byte->_lcd_send_nibble
    _lcd_send_nibble->_delay_cycles
    ___lwtoft->___ftpack
    ___ftdiv->___ftmul
    _AutoCoolMode->___ftge
    ___lbtoft->___ftpack
    ___ftneg->___lbtoft
    ___ftge->___ftadd
    ___ftadd->_fround
    _CoolMode->_set_pwm1_raw

Critical Paths under _highIsr in COMRAM

    None.

Critical Paths under _main in BANK0

    _main->_printingOnLCD
    _printingOnLCD->_sprintf

Critical Paths under _highIsr in BANK0

    None.

Critical Paths under _main in BANK1

    None.

Critical Paths under _highIsr in BANK1

    None.

Critical Paths under _main in BANK2

    None.

Critical Paths under _highIsr in BANK2

    None.

Critical Paths under _main in BANK3

    None.

Critical Paths under _highIsr in BANK3

    None.

Critical Paths under _main in BANK4

    None.

Critical Paths under _highIsr in BANK4

    None.

Critical Paths under _main in BANK5

    None.

Critical Paths under _highIsr in BANK5

    None.

Critical Paths under _main in BANK6

    None.

Critical Paths under _highIsr in BANK6

    None.

Critical Paths under _main in BANK7

    None.

Critical Paths under _highIsr in BANK7

    None.

Critical Paths under _main in BANK8

    None.

Critical Paths under _highIsr in BANK8

    None.

Critical Paths under _main in BANK9

    None.

Critical Paths under _highIsr in BANK9

    None.

Critical Paths under _main in BANK10

    None.

Critical Paths under _highIsr in BANK10

    None.

Critical Paths under _main in BANK11

    None.

Critical Paths under _highIsr in BANK11

    None.

Critical Paths under _main in BANK12

    None.

Critical Paths under _highIsr in BANK12

    None.

Critical Paths under _main in BANK13

    None.

Critical Paths under _highIsr in BANK13

    None.

Critical Paths under _main in BANK14

    None.

Critical Paths under _highIsr in BANK14

    None.

Critical Paths under _main in BANK15

    None.

Critical Paths under _highIsr in BANK15

    None.

Call Graph Tables:

 ---------------------------------------------------------------------------------
 (Depth) Function   	        Calls       Base Space   Used Autos Params    Refs
 ---------------------------------------------------------------------------------
 (0) _main                                                 0     0      0  113684
                       _AutoCoolMode
                           _CoolMode
                           _HeatMode
                            _OffMode
                            ___ftdiv
                            ___ftmul
                           ___lwtoft
                           _delay_ms
                          _initPorts
                    _init_adc_no_lib
                          _init_pwm1
                           _lcd_init
                      _printingOnLCD
                _read_adc_raw_no_lib
                       _setupCompare
                    _setupInterrupts
 ---------------------------------------------------------------------------------
 (1) _setupInterrupts                                      0     0      0       0
 ---------------------------------------------------------------------------------
 (1) _setupCompare                                         0     0      0       0
 ---------------------------------------------------------------------------------
 (1) _read_adc_raw_no_lib                                  7     5      2      45
                                             18 COMRAM     7     5      2
 ---------------------------------------------------------------------------------
 (1) _printingOnLCD                                        6     6      0   81515
                                             46 BANK0      6     6      0
                         _lcd_gotoxy
                           _lcd_puts
                            _sprintf
 ---------------------------------------------------------------------------------
 (2) _sprintf                                             47    36     11   72505
                                              0 BANK0     46    35     11
                            ___awdiv
                            ___ftadd
                             ___ftge
                            ___ftmul
                            ___ftneg
                            ___ftsub
                            ___fttol
                            ___lldiv
                            ___llmod
                           ___lltoft
                             ___wmul
                         __div_to_l_
                        __tdiv_to_l_
                             _fround
                            _isdigit
                              _scale
 ---------------------------------------------------------------------------------
 (3) _scale                                                7     4      3   16360
                                             53 COMRAM     7     4      3
                            ___awdiv
                            ___awmod
                            ___ftmul
                             ___wmul
 ---------------------------------------------------------------------------------
 (3) _isdigit                                              3     3      0      99
                                             18 COMRAM     3     3      0
 ---------------------------------------------------------------------------------
 (3) _fround                                              10     7      3   16081
                                             53 COMRAM    10     7      3
                            ___awdiv
                            ___awmod
                            ___ftmul
                             ___wmul
 ---------------------------------------------------------------------------------
 (4) ___wmul                                               6     2      4    3652
                                             32 COMRAM     6     2      4
                            ___awdiv (ARG)
                            ___awmod (ARG)
 ---------------------------------------------------------------------------------
 (4) ___ftmul                                             15     9      6    7781
                                             38 COMRAM    15     9      6
                            ___awdiv (ARG)
                            ___awmod (ARG)
                           ___ftpack
                           ___ftpack (ARG)
                           ___lwtoft (ARG)
                             ___wmul (ARG)
 ---------------------------------------------------------------------------------
 (4) ___awmod                                              6     2      4    2053
                                             18 COMRAM     6     2      4
 ---------------------------------------------------------------------------------
 (4) ___awdiv                                              8     4      4    2245
                                             24 COMRAM     8     4      4
                            ___awmod (ARG)
 ---------------------------------------------------------------------------------
 (3) __tdiv_to_l_                                         15     9      6     634
                                             18 COMRAM    15     9      6
 ---------------------------------------------------------------------------------
 (3) __div_to_l_                                          12     6      6     853
                                             18 COMRAM    12     6      6
 ---------------------------------------------------------------------------------
 (3) ___lltoft                                             9     5      4    3205
                                             26 COMRAM     9     5      4
                           ___ftpack
 ---------------------------------------------------------------------------------
 (3) ___llmod                                              9     1      8     952
                                             31 COMRAM     9     1      8
                            ___lldiv (ARG)
 ---------------------------------------------------------------------------------
 (3) ___lldiv                                             13     5      8     781
                                             18 COMRAM    13     5      8
 ---------------------------------------------------------------------------------
 (3) ___fttol                                             15    11      4     911
                                             60 COMRAM    15    11      4
                            ___ftmul (ARG)
                              _scale (ARG)
 ---------------------------------------------------------------------------------
 (3) ___ftsub                                              6     0      6    6414
                                             75 COMRAM     6     0      6
                            ___ftadd
                           ___lltoft (ARG)
 ---------------------------------------------------------------------------------
 (2) _lcd_puts                                             2     0      2    6331
                                             32 COMRAM     2     0      2
                           _lcd_putc
 ---------------------------------------------------------------------------------
 (3) _lcd_putc                                             1     1      0    5636
                                             31 COMRAM     1     1      0
                           _delay_ms
                         _lcd_gotoxy
                      _lcd_send_byte
 ---------------------------------------------------------------------------------
 (4) _lcd_gotoxy                                           3     2      1    2537
                                             28 COMRAM     3     2      1
                      _lcd_send_byte
 ---------------------------------------------------------------------------------
 (1) _lcd_init                                             1     1      0    3303
                                             28 COMRAM     1     1      0
                           _delay_ms
                      _lcd_send_byte
                    _lcd_send_nibble
 ---------------------------------------------------------------------------------
 (4) _lcd_send_byte                                        2     1      1    1979
                                             26 COMRAM     2     1      1
                       _delay_cycles
                           _delay_ms
                    _lcd_send_nibble
 ---------------------------------------------------------------------------------
 (5) _lcd_send_nibble                                      2     2      0      99
                                             24 COMRAM     2     2      0
                       _delay_cycles
 ---------------------------------------------------------------------------------
 (6) _delay_cycles                                         6     6      0      68
                                             18 COMRAM     6     6      0
 ---------------------------------------------------------------------------------
 (5) _delay_ms                                             4     2      2    1058
                                             18 COMRAM     4     2      2
 ---------------------------------------------------------------------------------
 (1) _init_adc_no_lib                                      0     0      0       0
 ---------------------------------------------------------------------------------
 (1) _initPorts                                            0     0      0       0
 ---------------------------------------------------------------------------------
 (1) ___lwtoft                                             3     0      3    3314
                                             26 COMRAM     3     0      3
                           ___ftpack
 ---------------------------------------------------------------------------------
 (1) ___ftdiv                                             15     9      6    5193
                                             53 COMRAM    15     9      6
                            ___ftmul (ARG)
                           ___ftpack
                           ___lwtoft (ARG)
 ---------------------------------------------------------------------------------
 (1) _OffMode                                              0     0      0       0
 ---------------------------------------------------------------------------------
 (1) _AutoCoolMode                                         3     3      0   11082
                                             84 COMRAM     3     3      0
                           _CoolMode
                           _HeatMode
                            ___ftadd
                             ___ftge
                            ___ftneg
                           ___lbtoft
 ---------------------------------------------------------------------------------
 (2) ___lbtoft                                             4     1      3    3044
                                             26 COMRAM     4     1      3
                           ___ftpack
 ---------------------------------------------------------------------------------
 (3) ___ftneg                                              3     0      3     515
                                             30 COMRAM     3     0      3
                           ___lbtoft (ARG)
 ---------------------------------------------------------------------------------
 (3) ___ftge                                               9     3      6    1098
                                             75 COMRAM     9     3      6
                            ___ftadd (ARG)
                            ___ftneg (ARG)
                           ___lbtoft (ARG)
 ---------------------------------------------------------------------------------
 (4) ___ftadd                                             12     6      6    5998
                                             63 COMRAM    12     6      6
                            ___ftneg (ARG)
                           ___ftpack
                           ___lbtoft (ARG)
                             _fround (ARG)
 ---------------------------------------------------------------------------------
 (5) ___ftpack                                             8     3      5    3013
                                             18 COMRAM     8     3      5
 ---------------------------------------------------------------------------------
 (1) _HeatMode                                             4     4      0      45
                                             18 COMRAM     4     4      0
 ---------------------------------------------------------------------------------
 (1) _CoolMode                                             0     0      0     348
                          _init_pwm1
                       _set_pwm1_raw
 ---------------------------------------------------------------------------------
 (2) _set_pwm1_raw                                         4     2      2     348
                                             18 COMRAM     4     2      2
 ---------------------------------------------------------------------------------
 (1) _init_pwm1                                            0     0      0       0
 ---------------------------------------------------------------------------------
 Estimated maximum stack depth 6
 ---------------------------------------------------------------------------------
 (Depth) Function   	        Calls       Base Space   Used Autos Params    Refs
 ---------------------------------------------------------------------------------
 (8) _highIsr                                             18    18      0       0
                                              0 COMRAM    18    18      0
 ---------------------------------------------------------------------------------
 Estimated maximum stack depth 8
 ---------------------------------------------------------------------------------

 Call Graph Graphs:

 _main (ROOT)
   _AutoCoolMode
     _CoolMode
       _init_pwm1
       _set_pwm1_raw
     _HeatMode
     ___ftadd
       ___ftneg (ARG)
         ___lbtoft (ARG)
           ___ftpack
       ___ftpack (ARG)
       ___lbtoft (ARG)
         ___ftpack
       _fround (ARG)
         ___awdiv
           ___awmod (ARG)
         ___awmod
         ___ftmul
           ___awdiv (ARG)
             ___awmod (ARG)
           ___awmod (ARG)
           ___ftpack (ARG)
           ___ftpack (ARG)
           ___lwtoft (ARG)
             ___ftpack
           ___wmul (ARG)
             ___awdiv (ARG)
               ___awmod (ARG)
             ___awmod (ARG)
         ___wmul
           ___awdiv (ARG)
             ___awmod (ARG)
           ___awmod (ARG)
     ___ftge
       ___ftadd (ARG)
         ___ftneg (ARG)
           ___lbtoft (ARG)
             ___ftpack
         ___ftpack (ARG)
         ___lbtoft (ARG)
           ___ftpack
         _fround (ARG)
           ___awdiv
             ___awmod (ARG)
           ___awmod
           ___ftmul
             ___awdiv (ARG)
               ___awmod (ARG)
             ___awmod (ARG)
             ___ftpack (ARG)
             ___ftpack (ARG)
             ___lwtoft (ARG)
               ___ftpack
             ___wmul (ARG)
               ___awdiv (ARG)
                 ___awmod (ARG)
               ___awmod (ARG)
           ___wmul
             ___awdiv (ARG)
               ___awmod (ARG)
             ___awmod (ARG)
       ___ftneg (ARG)
         ___lbtoft (ARG)
           ___ftpack
       ___lbtoft (ARG)
         ___ftpack
     ___ftneg
       ___lbtoft (ARG)
         ___ftpack
     ___lbtoft
       ___ftpack
   _CoolMode
     _init_pwm1
     _set_pwm1_raw
   _HeatMode
   _OffMode
   ___ftdiv
     ___ftmul (ARG)
       ___awdiv (ARG)
         ___awmod (ARG)
       ___awmod (ARG)
       ___ftpack (ARG)
       ___ftpack (ARG)
       ___lwtoft (ARG)
         ___ftpack
       ___wmul (ARG)
         ___awdiv (ARG)
           ___awmod (ARG)
         ___awmod (ARG)
     ___ftpack (ARG)
     ___lwtoft (ARG)
       ___ftpack
   ___ftmul
     ___awdiv (ARG)
       ___awmod (ARG)
     ___awmod (ARG)
     ___ftpack (ARG)
     ___ftpack (ARG)
     ___lwtoft (ARG)
       ___ftpack
     ___wmul (ARG)
       ___awdiv (ARG)
         ___awmod (ARG)
       ___awmod (ARG)
   ___lwtoft
     ___ftpack
   _delay_ms
   _initPorts
   _init_adc_no_lib
   _init_pwm1
   _lcd_init
     _delay_ms
     _lcd_send_byte
       _delay_cycles
       _delay_ms
       _lcd_send_nibble
         _delay_cycles
     _lcd_send_nibble
       _delay_cycles
   _printingOnLCD
     _lcd_gotoxy
       _lcd_send_byte
         _delay_cycles
         _delay_ms
         _lcd_send_nibble
           _delay_cycles
     _lcd_puts
       _lcd_putc
         _delay_ms
         _lcd_gotoxy
           _lcd_send_byte
             _delay_cycles
             _delay_ms
             _lcd_send_nibble
               _delay_cycles
         _lcd_send_byte
           _delay_cycles
           _delay_ms
           _lcd_send_nibble
             _delay_cycles
     _sprintf
       ___awdiv
         ___awmod (ARG)
       ___ftadd
         ___ftneg (ARG)
           ___lbtoft (ARG)
             ___ftpack
         ___ftpack (ARG)
         ___lbtoft (ARG)
           ___ftpack
         _fround (ARG)
           ___awdiv
             ___awmod (ARG)
           ___awmod
           ___ftmul
             ___awdiv (ARG)
               ___awmod (ARG)
             ___awmod (ARG)
             ___ftpack (ARG)
             ___ftpack (ARG)
             ___lwtoft (ARG)
               ___ftpack
             ___wmul (ARG)
               ___awdiv (ARG)
                 ___awmod (ARG)
               ___awmod (ARG)
           ___wmul
             ___awdiv (ARG)
               ___awmod (ARG)
             ___awmod (ARG)
       ___ftge
         ___ftadd (ARG)
           ___ftneg (ARG)
             ___lbtoft (ARG)
               ___ftpack
           ___ftpack (ARG)
           ___lbtoft (ARG)
             ___ftpack
           _fround (ARG)
             ___awdiv
               ___awmod (ARG)
             ___awmod
             ___ftmul
               ___awdiv (ARG)
                 ___awmod (ARG)
               ___awmod (ARG)
               ___ftpack (ARG)
               ___ftpack (ARG)
               ___lwtoft (ARG)
                 ___ftpack
               ___wmul (ARG)
                 ___awdiv (ARG)
                   ___awmod (ARG)
                 ___awmod (ARG)
             ___wmul
               ___awdiv (ARG)
                 ___awmod (ARG)
               ___awmod (ARG)
         ___ftneg (ARG)
           ___lbtoft (ARG)
             ___ftpack
         ___lbtoft (ARG)
           ___ftpack
       ___ftmul
         ___awdiv (ARG)
           ___awmod (ARG)
         ___awmod (ARG)
         ___ftpack (ARG)
         ___ftpack (ARG)
         ___lwtoft (ARG)
           ___ftpack
         ___wmul (ARG)
           ___awdiv (ARG)
             ___awmod (ARG)
           ___awmod (ARG)
       ___ftneg
         ___lbtoft (ARG)
           ___ftpack
       ___ftsub
         ___ftadd
           ___ftneg (ARG)
             ___lbtoft (ARG)
               ___ftpack
           ___ftpack (ARG)
           ___lbtoft (ARG)
             ___ftpack
           _fround (ARG)
             ___awdiv
               ___awmod (ARG)
             ___awmod
             ___ftmul
               ___awdiv (ARG)
                 ___awmod (ARG)
               ___awmod (ARG)
               ___ftpack (ARG)
               ___ftpack (ARG)
               ___lwtoft (ARG)
                 ___ftpack
               ___wmul (ARG)
                 ___awdiv (ARG)
                   ___awmod (ARG)
                 ___awmod (ARG)
             ___wmul
               ___awdiv (ARG)
                 ___awmod (ARG)
               ___awmod (ARG)
         ___lltoft (ARG)
           ___ftpack
       ___fttol
         ___ftmul (ARG)
           ___awdiv (ARG)
             ___awmod (ARG)
           ___awmod (ARG)
           ___ftpack (ARG)
           ___ftpack (ARG)
           ___lwtoft (ARG)
             ___ftpack
           ___wmul (ARG)
             ___awdiv (ARG)
               ___awmod (ARG)
             ___awmod (ARG)
         _scale (ARG)
           ___awdiv
             ___awmod (ARG)
           ___awmod
           ___ftmul
             ___awdiv (ARG)
               ___awmod (ARG)
             ___awmod (ARG)
             ___ftpack (ARG)
             ___ftpack (ARG)
             ___lwtoft (ARG)
               ___ftpack
             ___wmul (ARG)
               ___awdiv (ARG)
                 ___awmod (ARG)
               ___awmod (ARG)
           ___wmul
             ___awdiv (ARG)
               ___awmod (ARG)
             ___awmod (ARG)
       ___lldiv
       ___llmod
         ___lldiv (ARG)
       ___lltoft
         ___ftpack
       ___wmul
         ___awdiv (ARG)
           ___awmod (ARG)
         ___awmod (ARG)
       __div_to_l_
       __tdiv_to_l_
       _fround
         ___awdiv
           ___awmod (ARG)
         ___awmod
         ___ftmul
           ___awdiv (ARG)
             ___awmod (ARG)
           ___awmod (ARG)
           ___ftpack (ARG)
           ___ftpack (ARG)
           ___lwtoft (ARG)
             ___ftpack
           ___wmul (ARG)
             ___awdiv (ARG)
               ___awmod (ARG)
             ___awmod (ARG)
         ___wmul
           ___awdiv (ARG)
             ___awmod (ARG)
           ___awmod (ARG)
       _isdigit
       _scale
         ___awdiv
           ___awmod (ARG)
         ___awmod
         ___ftmul
           ___awdiv (ARG)
             ___awmod (ARG)
           ___awmod (ARG)
           ___ftpack (ARG)
           ___ftpack (ARG)
           ___lwtoft (ARG)
             ___ftpack
           ___wmul (ARG)
             ___awdiv (ARG)
               ___awmod (ARG)
             ___awmod (ARG)
         ___wmul
           ___awdiv (ARG)
             ___awmod (ARG)
           ___awmod (ARG)
   _read_adc_raw_no_lib
   _setupCompare
   _setupInterrupts

 _highIsr (ROOT)

 Address spaces:
Name               Size   Autos  Total    Cost      Usage
BIGRAM             F7F      0       0      37        0.0%
EEDATA             400      0       0       0        0.0%
BITBANK14          100      0       0      32        0.0%
BANK14             100      0       0      33        0.0%
BITBANK13          100      0       0      30        0.0%
BANK13             100      0       0      31        0.0%
BITBANK12          100      0       0      28        0.0%
BANK12             100      0       0      29        0.0%
BITBANK11          100      0       0      26        0.0%
BANK11             100      0       0      27        0.0%
BITBANK10          100      0       0      24        0.0%
BANK10             100      0       0      25        0.0%
BITBANK9           100      0       0      22        0.0%
BANK9              100      0       0      23        0.0%
BITBANK8           100      0       0      20        0.0%
BANK8              100      0       0      21        0.0%
BITBANK7           100      0       0      18        0.0%
BANK7              100      0       0      19        0.0%
BITBANK6           100      0       0      16        0.0%
BANK6              100      0       0      17        0.0%
BITBANK5           100      0       0      14        0.0%
BANK5              100      0       0      15        0.0%
BITBANK4           100      0       0      12        0.0%
BANK4              100      0       0      13        0.0%
BITBANK3           100      0       0      10        0.0%
BANK3              100      0       0      11        0.0%
BITBANK2           100      0       0       8        0.0%
BANK2              100      0       0       9        0.0%
BITBANK1           100      0       0       6        0.0%
BANK1              100      0       0       7        0.0%
BITBANK15           80      0       0      35        0.0%
BANK15              80      0       0      36        0.0%
BITBANK0            80      0       0       4        0.0%
BANK0               80     34      64       5       78.1%
BITCOMRAM           7E      0       0       0        0.0%
COMRAM              7E     57      6A       1       84.1%
BITSFR               0      0       0     200        0.0%
SFR                  0      0       0     200        0.0%
STACK                0      0       0       2        0.0%
NULL                 0      0       0       0        0.0%
ABS                  0      0      CE      34        0.0%
DATA                 0      0      CE       3        0.0%
CODE                 0      0       0       0        0.0%


Microchip Technology PIC18 Macro Assembler V1.45 build -152302408 
Symbol Table                                                                                   Thu Dec 11 00:16:16 2025

                           _T 0058                ?_printingOnLCD 0001                            _HC 00BD  
                          _SP 005B                ?_lcd_send_byte 001B                            _Hs 0069  
                ___awdiv@sign 001E           ___wmul@multiplicand 0023                  ___ftadd@exp1 004B  
                ___ftadd@exp2 004A                  ___ftadd@sign 0049                           l201 2658  
                         l204 2762                           l140 21AE                           l221 3504  
                         l205 272A                           l141 219E                           l133 1F7A  
                         l222 34F6                           l150 21E6                           l142 219C  
                         l207 2738                           l151 2220                           l135 217A  
                         l208 2746                           l152 21EC                           l136 216A  
                         l241 316C                           l401 1480                           l209 2754  
                         l153 21F2                           l145 21E0                           l137 2168  
                         l250 3378                           l402 14C0                           l154 21F8  
                         l146 21D0                           l227 344E                           l243 3194  
                         l251 3350                           l403 1588                           l155 21FE  
                         l147 21CE                           l228 3448                           l236 32F4  
                         l252 3354                           l260 3280                           l412 15EE  
                         l324 33E0                           l253 3358                           l261 328C  
                         l149 2204                           l262 3298                           l430 17B2  
                         l422 1748                           l406 1530                           l191 2E28  
                         l351 2440                           l431 18E4                           l423 16B4  
                         l248 335E                           l432 1802                           l416 165A  
                         l249 334C                           l257 32A4                           l361 1F3E  
                         l425 1768                           l258 3268                           l266 323A  
                         l354 1D62                           l450 1A52                           l442 19BA  
                         l434 1906                           l426 1752                           l418 1686  
                         l370 1210                           l267 3210                           l355 1C8E  
                         l435 18F0                           l419 1670                           l371 11FA  
                         l348 2374                           l444 19DA                           l428 178C  
                         l372 11C2                           l189 2DD0                           l445 19FC  
                         l437 194A                           l429 1790                           l365 10F6  
                         l197 263C                           l630 2FB6                           l358 1D3E  
                         l438 1962                           l390 1280                           l382 1222  
                         l366 1112                           l631 2FAE                           l359 1E8E  
                         l455 1B22                           l447 1A1E                           l375 12D6  
                         l383 123E                           l640 308E                           l456 1A9A  
                         l448 1A26                           l392 12B0                           l384 1254  
                         l368 1140                           l641 309A                           l449 1A4A  
                         l393 12C4                           l722 24D2                           l810 2B6E  
                         l634 2FD6                           l394 1910                           l386 126E  
                         l378 121E                           l731 2562                           l811 2B5E  
                         l635 2FE0                           l627 2F88                           l643 30B0  
                         l395 1320                           l379 130C                           l387 125E  
                         l804 33A0                           l636 2FEE                           l628 2F98  
                         l644 30A8                           l396 1362                           l661 28EC  
                         l389 129C                           l750 2606                           l726 24FC  
                         l662 292E                           l398 13F4                           l671 29C0  
                         l663 295E                           l647 30C8                           l823 361E  
                         l399 145A                           l736 2558                           l816 2B92  
                         l808 2AF8                           l672 29B4                           l648 30D2  
                         l745 2596                           l737 254E                           l817 2B86  
                         l665 299C                           l649 30E0                           l746 258C  
                         l850 301A                           l666 298C                           l770 2864  
                         l691 2E5E                           l755 2BE8                           l819 2BAE  
                         l659 28CE                           l763 27AA                           l692 2E54  
                         l748 25BA                           l780 2F14                           l860 30FC  
                         l749 25D6                           l781 2F44                           l757 2C10  
                         l853 305A                           l765 27D6                           l694 2E92  
                         l758 2C4E                           l854 3068                           l870 31C4  
                         l766 2810                           l790 2A5A                           l695 2E7C  
                         l759 2C74                           l863 3130                           l871 31B8  
                         l775 2898                           l767 2838                           l791 2A6A  
                         l864 313E                           l776 288C                           l697 2EBA  
                         l849 3026                           l769 2874                           l793 2A82  
                         l698 2EB0                           l794 2A92                           l859 3108  
                         l787 2A00                           l789 2A28                           l798 3596  
                         _PR2 000FCB                           _lcd 000F83                  ___awmod@sign 0018  
                         prod 000FF3                           wreg 000FE8                ??_AutoCoolMode 0055  
                 lcd_gotoxy@x 001E                   lcd_gotoxy@y 001D              _mode_change_flag 0068  
                ___ftdiv@cntr 003F                  ___ftdiv@sign 0044                          l4600 1752  
                        l4460 1280                          l4454 125E                          l4720 1B1E  
                        l4536 150A                          l4528 14C0                          l4716 1A9A  
                        l4580 1680                          l4556 15F2                          l3774 2F70  
                        l4662 1966                          l4576 1670                          l4762 318C  
                        l4748 3164                          STR_1 109B                          STR_2 1089  
                        STR_3 1077                          STR_4 10AB                          STR_5 10C9  
                        STR_6 10BA                          STR_7 10D8                          _LATA 000F89  
                        _LATB 000F8A                          _LATC 000F8B                          _LATD 000F8C  
                        _LATE 000F8D                          u4011 29E8                          u4100 2FBA  
                        u4031 2A10                          u4301 27BA                          u5200 325C  
                        u4160 30B4                          u5140 1A5A                          u5060 199E  
                        u5301 2BD0                          u5230 3182                          u4510 2B16  
                        u4430 29C6                          u5150 1A78                          u5207 3252  
                        u4360 289E                          u3801 2490                          u5321 2BF8  
                        u3705 32C4                          u4281 278E                          u3730 2E46  
                        u3706 32C6                          u4610 310C                          u5170 1B32  
                        u2835 3420                          u3811 24A4                          u4515 2B0E  
                        u3900 252C                          u5180 1B4C                          u5190 3232  
                        u4550 2B98                          u3840 24C4                          u3770 2EC4  
                        u4491 2ADC                          u3940 256A                          u4580 302A  
                        u4900 162A                          u4820 1492                          u4660 119E  
                        u5197 3228                          u3870 24EE                          u4830 14D2  
                        u3970 259E                          u4930 1694                          u4860 150A  
                        u4780 139A                          u5477 32EC                          u5487 34F8  
                        u4960 1776                          u4785 1390                          u4970 1786  
                        _TMR1 000FCE              ?_lcd_send_nibble 0001                          _main 1F62  
                ___ftpack@arg 0013                  ___ftpack@exp 0016                          fsr0h 000FEA  
                        fsr1h 000FE2                          indf0 000FEF                          fsr2h 000FDA  
                        fsr0l 000FE9                          indf1 000FE7                          indf2 000FDF  
                        fsr1l 000FE1                          fsr2l 000FD9                          btemp 006B  
                        prodh 000FF4                          prodl 000FF3                          start 000E  
                _sprintf$1800 0091                  ___ftmul@cntr 0034                  ___param_bank 000000  
                ___ftmul@sign 0035               __end_of_OffMode 363C                  ___fttol@exp1 004B  
                ___fttol@lval 0047          __end_of_delay_cycles 346A                         ?_main 0001  
             __end_of___awdiv 2FF8               __end_of___ftadd 262C               __end_of___awmod 30EA  
             __end_of___ftdiv 2CA6               __end_of___ftneg 35A4               __end_of___lldiv 307A  
             __end_of___ftmul 2ACC               ___awdiv@divisor 001B                         _T1CON 000FCD  
             __end_of___llmod 3150               __end_of___ftsub 33CA               __end_of___fttol 2BC0  
                       _T2CON 000FCA                         i2l172 2CFA                         i2l173 2D04  
                       i2l174 2D0E                         i2l175 2D16                         i2l176 2D26  
             ___awdiv@counter 001D                         _TRISA 000F92                         _TRISB 000F93  
                       _TRISC 000F94                         _TRISD 000F95                         _TRISE 000F96  
       AutoCoolMode@coolError 0055                  ___lltoft@exp 0023               __end_of_highIsr 2D72  
             __end_of_dpowers 1029                         _scale 1B5A               __end_of_isdigit 3626  
             _init_adc_no_lib 364C                 ___ftpack@sign 0017                         pclath 000FFA  
                       tablat 000FF5             _printingOnLCD$796 00B0             _printingOnLCD$798 00B2  
                       status 000FD8                         wtemp6 006C               __end_of_sprintf 1B5A  
            __end_of_HeatMode 343C              __end_of_CoolMode 3538               __initialization 3302  
             ??_printingOnLCD 0055                  __end_of_main 222E               ??_lcd_send_byte 001C  
                      ??_main 0058                 ___fttol@sign1 0046                 __activetblptr 000002  
    __size_of_setupInterrupts 0022          __size_of__tdiv_to_l_ 0132                        _ADCON0 000FC2  
                      _ADCON1 000FC1                        _ADCON2 000FC0              ___llmod@dividend 0020  
                      ?_scale 0036                        _ADRESH 000FC4                        _ADRESL 000FC3  
                      _CCPR2H 000FBC                        _CCPR1L 000FBE                        _CCPR2L 000FBB  
            ___awdiv@dividend 0019              __end_of___ftpack 2EE4              __end_of___lbtoft 3580  
            __end_of___lltoft 320E              __end_of___lwtoft 355C                     ??_OffMode 0013  
            __end_of_delay_ms 3512                        _Buffer 00C0              __end_of__powers_ 1050  
        __end_of_AutoCoolMode 2E36              __end_of_lcd_init 31B2              __end_of_lcd_putc 32BA  
            __end_of_lcd_puts 3264                        ___ftge 2EE4                        ___wmul 34C6  
                   ??___awdiv 001D                     ??___ftadd 0046                     ??___awmod 0017  
                   ??___ftdiv 003C                     ??___ftneg 0022                     ??___lldiv 001B  
                   ??___ftmul 002D                     ??___llmod 0028                     ??___ftsub 0052  
                   ??___fttol 0041                        _fround 222E                        clear_0 3328  
                      clear_1 3334              ___awdiv@quotient 001F               ___awmod@divisor 0015  
             ___awmod@counter 0017                     ??_highIsr 0001         ___ftmul@f3_as_product 0031  
     __end_of_init_adc_no_lib 3658                     ??_isdigit 0013                _hs_change_flag 0067  
                __mediumconst 0000                        tblptrh 000FF7                        tblptrl 000FF6  
                      tblptru 000FF8                     ??_sprintf 008B                    __accesstop 0080  
     __end_of__initialization 333A                    ___ftadd@f1 0040                    ___ftadd@f2 0043  
                  ___ftge@ff1 004C                    ___ftge@ff2 004F                 ___rparam_used 000001  
                  ___ftdiv@f1 0036                    ___ftdiv@f2 0039                    ___ftdiv@f3 0040  
                  ___ftneg@f1 001F                    ___lbtoft@c 001E                    ___ftmul@f1 0027  
                  ___ftmul@f2 002A                    ___ftsub@f1 004C                    ___ftsub@f2 004F  
                  ___fttol@f1 003D                __pcstackCOMRAM 0001         __size_of_delay_cycles 002E  
                __pidataBANK0 3658                    ___lltoft@c 001B                 __end_of_scale 1F62  
                  ___lwtoft@c 001B                    __div_to_l_ 28B0                     ?_HeatMode 0001  
           lcd_gotoxy@address 001F               __div_to_l_@exp1 001E                     ?_CoolMode 0001  
             __div_to_l_@cntr 001D                       ??_scale 0039             ??_setupInterrupts 0013  
             __div_to_l_@quot 0019                  sprintf@width 00A6                    __pbssBANK0 00B4  
 __end_of_read_adc_raw_no_lib 3404                  _delay_cycles 343C                printingOnLCD@c 00AF  
              printingOnLCD@h 00AE            __size_of_initPorts 002E                 __div_to_l_@f1 0013  
               __div_to_l_@f2 0016            __size_of_init_pwm1 0010                lcd_send_byte@n 001B  
                     ?___ftge 004C                       ?___wmul 0021              lcd_send_nibble@n 001A  
                     _CCP1CON 000FBD                       _CCP2CON 000FBA                       ?_fround 0036  
                   ?___ftpack 0013                     ?___lbtoft 001B                     ?___lltoft 001B  
                   ?___lwtoft 001B              ?_init_adc_no_lib 0001                     ?_delay_ms 0013  
                  ??_HeatMode 0013                    _lcd_gotoxy 3348                    ??_CoolMode 0017  
                   ?_lcd_init 0001                     ?_lcd_putc 0001                     ?_lcd_puts 0021  
       __size_of_AutoCoolMode 00C4                       _OffMode 3626             __end_of__npowers_ 1077  
                     __Hparam 0000                    _scale$1799 0039                       __Lparam 0000  
    __size_of_lcd_send_nibble 0022               __size_of___ftge 0090                       ___awdiv 2F74  
                     ___ftadd 2480                       ___awmod 307A                       ___ftdiv 2BC0  
                     ___ftneg 3580                       ___lldiv 2FF8               __size_of___wmul 0026  
                     ___ftmul 29D8                       ___llmod 30EA                       ___ftsub 338A  
                     ___fttol 2ACC                 ?_set_pwm1_raw 0013                  __psmallconst 1000  
                     __pcinit 3302                    ??___ftpack 0018                    ??___lbtoft 001E  
             __size_of_fround 0252                       __ramtop 1000                    ??___lltoft 001F  
                     __ptext0 1F62                       __ptext1 35A4                       __ptext2 35E8  
                     __ptext3 33CA                       __ptext4 262C                       __ptext5 10E8  
                     __ptext6 1B5A                       __ptext7 3608                       __ptext8 222E  
                     __ptext9 34C6                       _highIsr 0008                    ??___lwtoft 001E  
                   _T1CONbits 000FCD                   ?__div_to_l_ 0013             __end_of_initPorts 3498  
                     _dpowers 1001                     _T2CONbits 000FCA                       _raw_AI0 0062  
                     _raw_AI1 0060                       _raw_AI2 005E                       _isdigit 3608  
           __end_of_init_pwm1 364C              ___awmod@dividend 0013                    ??_delay_ms 0015  
                _AutoCoolMode 2D72                       _sprintf 10E8                    ??_lcd_init 001D  
              __pintcode_body 2CA6                    ??_lcd_putc 0020                    ??_lcd_puts 0023  
        end_of_initialization 333A                 __Lmediumconst 0000                       int_func 2CA6  
        lcd_send_byte@cm_data 001C               ___lldiv@divisor 0017               ___lldiv@counter 001F  
               ?_setupCompare 0001                       postdec1 000FE5                       postdec2 000FDD  
                     postinc0 000FEE                       postinc2 000FDE                ??_set_pwm1_raw 0015  
       __end_of_printingOnLCD 277E                __tdiv_to_l_@f1 0013                __tdiv_to_l_@f2 0016  
       __end_of_lcd_send_byte 3302                 ??__tdiv_to_l_ 0019                     _PORTBbits 000F81  
                   _PORTCbits 000F82                     _PORTEbits 000F84                     _TRISCbits 000F94  
                 ?_lcd_gotoxy 001D               _LCD_INIT_STRING 00E0                   _CCP1CONbits 000FBD  
                 ___ftdiv@exp 0043           __size_of__div_to_l_ 0128                ??_setupCompare 0013  
                 ___ftmul@exp 0030                __end_of___ftge 2F74                __end_of___wmul 34EC  
               delay_cycles@n 0016                 delay_cycles@x 0017               _setupInterrupts 35A4  
           ??_lcd_send_nibble 0019                __end_of_fround 2480           start_initialization 3302  
       HeatMode@compare_value 0015           __end_of__tdiv_to_l_ 28B0             __size_of_HeatMode 0038  
                 _AI0_voltage 00BA             __size_of_CoolMode 0026                   _AI1_voltage 00B7  
                 _AI2_voltage 00B4               ___llmod@divisor 0024               ___llmod@counter 0028  
                    ??___ftge 0052           __size_of_lcd_gotoxy 0042                      ??___wmul 0025  
                 __pdataBANK0 00E0  read_adc_raw_no_lib@raw_value 0017                      ??_fround 0039  
               sprintf@tmpval 009C                    fround@prec 003F             __size_of___ftpack 00AE  
           __size_of___lbtoft 0024             __size_of___lltoft 005C                   __pbssCOMRAM 0058  
           __size_of___lwtoft 0024                 __pcstackBANK0 0080                  _isdigit$1441 0014  
           __size_of_delay_ms 0026          __end_of_set_pwm1_raw 34C6             __size_of_lcd_init 0062  
                 sprintf@flag 009A             __size_of_lcd_putc 0056             __size_of_lcd_puts 0056  
                 sprintf@fval 00A8                   sprintf@prec 00AB                      ?_OffMode 0001  
     __end_of_setupInterrupts 35C6                     __pintcode 0008  __size_of_read_adc_raw_no_lib 003A  
                    ?___awdiv 0019                      ?___ftadd 0040                      ?___awmod 0013  
                    ?___ftdiv 0036                      ?___ftneg 001F                      ?___lldiv 0013  
                    ?___ftmul 0027                      ?___llmod 0020                      ?___ftsub 004C  
                   __npowers_ 1050                      ?___fttol 003D                   __tdiv_to_l_ 277E  
                    ?_highIsr 0001                  ??__div_to_l_ 0019                   __smallconst 1000  
                    ?_isdigit 0001          __end_of_setupCompare 3608                     _initPorts 346A  
                    ?_sprintf 0080                     _init_pwm1 363C                __size_of_scale 0408  
    __size_of_init_adc_no_lib 000C                ___wmul@product 0025                     delay_ms@n 0013  
                   delay_ms@x 0015                      _PIE1bits 000F9D                      _PIE2bits 000FA0  
                    _PIR1bits 000F9E            __end_of__div_to_l_ 29D8                      _PIR2bits 000FA1  
                    _RCONbits 000FD0    read_adc_raw_no_lib@channel 0019                    _ADCON0bits 000FC2  
           ___wmul@multiplier 0021                     lcd_init@i 001D                     lcd_putc@c 0020  
                   lcd_puts@s 0021                  ??_lcd_gotoxy 001E                      _HeatMode 3404  
                  ?_initPorts 0001                      _CoolMode 3512                    ?_init_pwm1 0001  
                 _INTCON2bits 000FF1                   _INTCON3bits 000FF0                     copy_data0 3316  
            __size_of_OffMode 0016               _lcd_send_nibble 35C6                      __Hrparam 0000  
       set_pwm1_raw@raw_value 0013                      __Lrparam 0000              ?_setupInterrupts 0001  
          __end_of_lcd_gotoxy 338A              __size_of___awdiv 0084              __size_of___ftadd 01AC  
            __size_of___awmod 0070              __size_of___ftdiv 00E6              __size_of___ftneg 0024  
            __size_of___lldiv 0082              __size_of___ftmul 00F4              __size_of___llmod 0066  
            __size_of___ftsub 0040              __size_of___fttol 00F4                      ___ftpack 2E36  
                    ___lbtoft 355C                   _fround$1797 003C                   _fround$1798 0039  
                    ___lltoft 31B2                      ___lwtoft 3538              __size_of_highIsr 2D6A  
                 _currentMode 006A                    sprintf@len 0098                    sprintf@exp 00A4  
                  sprintf@val 00A0         __size_of_set_pwm1_raw 002E              __size_of_isdigit 001E  
                    _delay_ms 34EC                      __ptext10 29D8                      __ptext11 307A  
                    __ptext20 320E                      __ptext12 2F74                      __ptext21 3264  
                    __ptext13 277E                      __ptext30 3538                      __ptext22 3348  
                    __ptext14 28B0                      __ptext31 2BC0                      __ptext23 3150  
                    __ptext15 31B2                      __ptext40 3512                      __ptext32 3626  
                    __ptext24 32BA                      __ptext16 30EA                      __ptext41 3498  
                    __ptext33 2D72                      __ptext25 35C6                      __ptext17 2FF8  
                    __ptext42 363C                      __ptext34 355C                      __ptext26 343C  
                    __ptext18 2ACC                      __ptext35 3580                      __ptext27 34EC  
                    __ptext19 338A                      __ptext36 2EE4                      __ptext28 364C  
                    __ptext37 2480                      __ptext29 346A                      __ptext38 2E36  
                    __ptext39 3404                      _heaterOn 0065                      __powers_ 1029  
                    _lcd_init 3150                      _lcd_putc 3264                      _coolerOn 0064  
                    _lcd_puts 320E              __size_of_sprintf 0A72        __size_of_printingOnLCD 0152  
      __size_of_lcd_send_byte 0048                      _off_flag 0066                 ?_delay_cycles 0001  
               __size_of_main 02CC             ??_init_adc_no_lib 0013                      int$flags 006B  
                _set_pwm1_raw 3498         __size_of_setupCompare 0020                    _INTCONbits 000FF2  
                    isdigit@c 0015                   ??_initPorts 0013           _read_adc_raw_no_lib 33CA  
                    scale@scl 003C                   ??_init_pwm1 0013                      intlevel2 0000  
                   sprintf@ap 0096                     sprintf@cp 0094       __end_of_lcd_send_nibble 35E8  
            __tdiv_to_l_@exp1 0021              __tdiv_to_l_@cntr 0020                     sprintf@sp 0080  
              ??_delay_cycles 0013              __tdiv_to_l_@quot 001C              ___lldiv@dividend 0013  
                _setupCompare 35E8          ?_read_adc_raw_no_lib 0013                 _printingOnLCD 262C  
               _lcd_send_byte 32BA                  ?__tdiv_to_l_ 0013                      sprintf@c 00AD  
                    sprintf@f 0082              ___lldiv@quotient 001B                 ?_AutoCoolMode 0001  
       ??_read_adc_raw_no_lib 0015  
